(dp1
S'output'
p2
S''
sS'layer'
p3
S'Framework'
p4
sS'code'
p5
S''
sS'snapshot'
p6
(dp7
S'exception'
p8
(dp9
S'__getslice__'
p10
S"<method-wrapper '__getslice__' of exceptions.OSError object>"
p11
sS'__str__'
p12
S"<method-wrapper '__str__' of exceptions.OSError object>"
p13
sS'__reduce__'
p14
S'<built-in method __reduce__ of exceptions.OSError object>'
p15
sS'__dict__'
p16
S'{}'
p17
sS'__sizeof__'
p18
S'<built-in method __sizeof__ of exceptions.OSError object>'
p19
sS'__init__'
p20
S"<method-wrapper '__init__' of exceptions.OSError object>"
p21
sS'__setattr__'
p22
S"<method-wrapper '__setattr__' of exceptions.OSError object>"
p23
sS'__reduce_ex__'
p24
S'<built-in method __reduce_ex__ of exceptions.OSError object>'
p25
sS'__new__'
p26
S'<built-in method __new__ of type object>'
p27
sS'errno'
p28
S'13'
p29
sS'__format__'
p30
S'<built-in method __format__ of exceptions.OSError object>'
p31
sS'__class__'
p32
S"<type 'exceptions.OSError'>"
p33
sS'filename'
p34
S"'/home/arvin/web2py/applications/welcome/cache/cache.shelve'"
p35
sS'__doc__'
p36
S"'OS system call failed.'"
p37
sS'__getitem__'
p38
S"<method-wrapper '__getitem__' of exceptions.OSError object>"
p39
sS'__setstate__'
p40
S'<built-in method __setstate__ of exceptions.OSError object>'
p41
sS'__getattribute__'
p42
S"<method-wrapper '__getattribute__' of exceptions.OSError object>"
p43
sS'args'
p44
S"(13, 'Permission denied')"
p45
sS'__subclasshook__'
p46
S'<built-in method __subclasshook__ of type object>'
p47
sS'__unicode__'
p48
S'<built-in method __unicode__ of exceptions.OSError object>'
p49
sS'strerror'
p50
S"'Permission denied'"
p51
sS'__delattr__'
p52
S"<method-wrapper '__delattr__' of exceptions.OSError object>"
p53
sS'__repr__'
p54
S"<method-wrapper '__repr__' of exceptions.OSError object>"
p55
sS'__hash__'
p56
S"<method-wrapper '__hash__' of exceptions.OSError object>"
p57
ssS'evalue'
p58
S"[Errno 13] Permission denied: '/home/arvin/web2py/applications/welcome/cache/cache.shelve'"
p59
sS'request'
p60
ccopy_reg
_reconstructor
p61
(cgluon.html
BEAUTIFY
p62
c__builtin__
object
p63
NtRp64
(dp65
S'attributes'
p66
(dp67
sS'components'
p68
(lp69
g61
(cgluon.html
TABLE
p70
g63
NtRp71
(dp72
g66
(dp73
S'level'
p74
I5
ssS'parent'
p75
Nsg68
(lp76
g61
(cgluon.html
TR
p77
g63
NtRp78
(dp79
g66
(dp80
sg75
g71
sg68
(lp81
g61
(cgluon.html
TD
p82
g63
NtRp83
(dp84
g66
(dp85
S'_style'
p86
S'font-weight:bold;'
p87
ssg75
g78
sg68
(lp88
S'ajax'
p89
asbag61
(g82
g63
NtRp90
(dp91
g66
(dp92
S'_valign'
p93
S'top'
p94
ssg75
g78
sg68
(lp95
S':'
asbag61
(g82
g63
NtRp96
(dp97
g66
(dp98
sg75
g78
sg68
(lp99
g61
(g62
g63
NtRp100
(dp101
g66
(dp102
g74
I5
ssg75
g96
sg68
(lp103
S'False'
p104
asbasbasbag61
(g77
g63
NtRp105
(dp106
g66
(dp107
sg75
g71
sg68
(lp108
g61
(g82
g63
NtRp109
(dp110
g66
(dp111
g86
g87
ssg75
g105
sg68
(lp112
S'application'
p113
asbag61
(g82
g63
NtRp114
(dp115
g66
(dp116
g93
g94
ssg75
g105
sg68
(lp117
S':'
asbag61
(g82
g63
NtRp118
(dp119
g66
(dp120
sg75
g105
sg68
(lp121
g61
(g62
g63
NtRp122
(dp123
g66
(dp124
g74
I5
ssg75
g118
sg68
(lp125
S'welcome'
p126
asbasbasbag61
(g77
g63
NtRp127
(dp128
g66
(dp129
sg75
g71
sg68
(lp130
g61
(g82
g63
NtRp131
(dp132
g66
(dp133
g86
g87
ssg75
g127
sg68
(lp134
g44
asbag61
(g82
g63
NtRp135
(dp136
g66
(dp137
g93
g94
ssg75
g127
sg68
(lp138
S':'
asbag61
(g82
g63
NtRp139
(dp140
g66
(dp141
sg75
g127
sg68
(lp142
g61
(g62
g63
NtRp143
(dp144
g66
(dp145
g74
I5
ssg75
g139
sg68
(lp146
g61
(g70
g63
NtRp147
(dp148
g66
(dp149
g74
I4
ssg75
Nsg68
(lp150
sbasbasbasbag61
(g77
g63
NtRp151
(dp152
g66
(dp153
sg75
g71
sg68
(lp154
g61
(g82
g63
NtRp155
(dp156
g66
(dp157
g86
g87
ssg75
g151
sg68
(lp158
S'body'
p159
asbag61
(g82
g63
NtRp160
(dp161
g66
(dp162
g93
g94
ssg75
g151
sg68
(lp163
S':'
asbag61
(g82
g63
NtRp164
(dp165
g66
(dp166
sg75
g151
sg68
(lp167
g61
(g62
g63
NtRp168
(dp169
g66
(dp170
g74
I5
ssg75
g164
sg68
(lp171
S'<cStringIO.StringO object at 0x89a17a0>'
p172
asbasbasbag61
(g77
g63
NtRp173
(dp174
g66
(dp175
sg75
g71
sg68
(lp176
g61
(g82
g63
NtRp177
(dp178
g66
(dp179
g86
g87
ssg75
g173
sg68
(lp180
S'client'
p181
asbag61
(g82
g63
NtRp182
(dp183
g66
(dp184
g93
g94
ssg75
g173
sg68
(lp185
S':'
asbag61
(g82
g63
NtRp186
(dp187
g66
(dp188
sg75
g173
sg68
(lp189
g61
(g62
g63
NtRp190
(dp191
g66
(dp192
g74
I5
ssg75
g186
sg68
(lp193
S'186.32.48.60'
p194
asbasbasbag61
(g77
g63
NtRp195
(dp196
g66
(dp197
sg75
g71
sg68
(lp198
g61
(g82
g63
NtRp199
(dp200
g66
(dp201
g86
g87
ssg75
g195
sg68
(lp202
S'controller'
p203
asbag61
(g82
g63
NtRp204
(dp205
g66
(dp206
g93
g94
ssg75
g195
sg68
(lp207
S':'
asbag61
(g82
g63
NtRp208
(dp209
g66
(dp210
sg75
g195
sg68
(lp211
g61
(g62
g63
NtRp212
(dp213
g66
(dp214
g74
I5
ssg75
g208
sg68
(lp215
S'default'
p216
asbasbasbag61
(g77
g63
NtRp217
(dp218
g66
(dp219
sg75
g71
sg68
(lp220
g61
(g82
g63
NtRp221
(dp222
g66
(dp223
g86
g87
ssg75
g217
sg68
(lp224
S'cookies'
p225
asbag61
(g82
g63
NtRp226
(dp227
g66
(dp228
g93
g94
ssg75
g217
sg68
(lp229
S':'
asbag61
(g82
g63
NtRp230
(dp231
g66
(dp232
sg75
g217
sg68
(lp233
g61
(g62
g63
NtRp234
(dp235
g66
(dp236
g74
I5
ssg75
g230
sg68
(lp237
g61
(g70
g63
NtRp238
(dp239
g66
(dp240
g74
I4
ssg75
Nsg68
(lp241
g61
(g77
g63
NtRp242
(dp243
g66
(dp244
sg75
g238
sg68
(lp245
g61
(g82
g63
NtRp246
(dp247
g66
(dp248
g86
g87
ssg75
g242
sg68
(lp249
S'session_id_init'
p250
asbag61
(g82
g63
NtRp251
(dp252
g66
(dp253
g93
g94
ssg75
g242
sg68
(lp254
S':'
asbag61
(g82
g63
NtRp255
(dp256
g66
(dp257
sg75
g242
sg68
(lp258
g61
(g62
g63
NtRp259
(dp260
g66
(dp261
g74
I4
ssg75
g255
sg68
(lp262
g61
(g70
g63
NtRp263
(dp264
g66
(dp265
g74
I3
ssg75
Nsg68
(lp266
g61
(g77
g63
NtRp267
(dp268
g66
(dp269
sg75
g263
sg68
(lp270
g61
(g82
g63
NtRp271
(dp272
g66
(dp273
g86
g87
ssg75
g267
sg68
(lp274
S'comment'
p275
asbag61
(g82
g63
NtRp276
(dp277
g66
(dp278
g93
g94
ssg75
g267
sg68
(lp279
S':'
asbag61
(g82
g63
NtRp280
(dp281
g66
(dp282
sg75
g267
sg68
(lp283
g61
(g62
g63
NtRp284
(dp285
g66
(dp286
g74
I3
ssg75
g280
sg68
(lp287
S''
asbasbasbag61
(g77
g63
NtRp288
(dp289
g66
(dp290
sg75
g263
sg68
(lp291
g61
(g82
g63
NtRp292
(dp293
g66
(dp294
g86
g87
ssg75
g288
sg68
(lp295
S'domain'
p296
asbag61
(g82
g63
NtRp297
(dp298
g66
(dp299
g93
g94
ssg75
g288
sg68
(lp300
S':'
asbag61
(g82
g63
NtRp301
(dp302
g66
(dp303
sg75
g288
sg68
(lp304
g61
(g62
g63
NtRp305
(dp306
g66
(dp307
g74
I3
ssg75
g301
sg68
(lp308
S''
asbasbasbag61
(g77
g63
NtRp309
(dp310
g66
(dp311
sg75
g263
sg68
(lp312
g61
(g82
g63
NtRp313
(dp314
g66
(dp315
g86
g87
ssg75
g309
sg68
(lp316
S'expires'
p317
asbag61
(g82
g63
NtRp318
(dp319
g66
(dp320
g93
g94
ssg75
g309
sg68
(lp321
S':'
asbag61
(g82
g63
NtRp322
(dp323
g66
(dp324
sg75
g309
sg68
(lp325
g61
(g62
g63
NtRp326
(dp327
g66
(dp328
g74
I3
ssg75
g322
sg68
(lp329
S''
asbasbasbag61
(g77
g63
NtRp330
(dp331
g66
(dp332
sg75
g263
sg68
(lp333
g61
(g82
g63
NtRp334
(dp335
g66
(dp336
g86
g87
ssg75
g330
sg68
(lp337
S'httponly'
p338
asbag61
(g82
g63
NtRp339
(dp340
g66
(dp341
g93
g94
ssg75
g330
sg68
(lp342
S':'
asbag61
(g82
g63
NtRp343
(dp344
g66
(dp345
sg75
g330
sg68
(lp346
g61
(g62
g63
NtRp347
(dp348
g66
(dp349
g74
I3
ssg75
g343
sg68
(lp350
S''
asbasbasbag61
(g77
g63
NtRp351
(dp352
g66
(dp353
sg75
g263
sg68
(lp354
g61
(g82
g63
NtRp355
(dp356
g66
(dp357
g86
g87
ssg75
g351
sg68
(lp358
S'max-age'
p359
asbag61
(g82
g63
NtRp360
(dp361
g66
(dp362
g93
g94
ssg75
g351
sg68
(lp363
S':'
asbag61
(g82
g63
NtRp364
(dp365
g66
(dp366
sg75
g351
sg68
(lp367
g61
(g62
g63
NtRp368
(dp369
g66
(dp370
g74
I3
ssg75
g364
sg68
(lp371
S''
asbasbasbag61
(g77
g63
NtRp372
(dp373
g66
(dp374
sg75
g263
sg68
(lp375
g61
(g82
g63
NtRp376
(dp377
g66
(dp378
g86
g87
ssg75
g372
sg68
(lp379
S'path'
p380
asbag61
(g82
g63
NtRp381
(dp382
g66
(dp383
g93
g94
ssg75
g372
sg68
(lp384
S':'
asbag61
(g82
g63
NtRp385
(dp386
g66
(dp387
sg75
g372
sg68
(lp388
g61
(g62
g63
NtRp389
(dp390
g66
(dp391
g74
I3
ssg75
g385
sg68
(lp392
S''
asbasbasbag61
(g77
g63
NtRp393
(dp394
g66
(dp395
sg75
g263
sg68
(lp396
g61
(g82
g63
NtRp397
(dp398
g66
(dp399
g86
g87
ssg75
g393
sg68
(lp400
S'secure'
p401
asbag61
(g82
g63
NtRp402
(dp403
g66
(dp404
g93
g94
ssg75
g393
sg68
(lp405
S':'
asbag61
(g82
g63
NtRp406
(dp407
g66
(dp408
sg75
g393
sg68
(lp409
g61
(g62
g63
NtRp410
(dp411
g66
(dp412
g74
I3
ssg75
g406
sg68
(lp413
S''
asbasbasbag61
(g77
g63
NtRp414
(dp415
g66
(dp416
sg75
g263
sg68
(lp417
g61
(g82
g63
NtRp418
(dp419
g66
(dp420
g86
g87
ssg75
g414
sg68
(lp421
S'version'
p422
asbag61
(g82
g63
NtRp423
(dp424
g66
(dp425
g93
g94
ssg75
g414
sg68
(lp426
S':'
asbag61
(g82
g63
NtRp427
(dp428
g66
(dp429
sg75
g414
sg68
(lp430
g61
(g62
g63
NtRp431
(dp432
g66
(dp433
g74
I3
ssg75
g427
sg68
(lp434
S''
asbasbasbasbasbasbasbasbasbasbasbag61
(g77
g63
NtRp435
(dp436
g66
(dp437
sg75
g71
sg68
(lp438
g61
(g82
g63
NtRp439
(dp440
g66
(dp441
g86
g87
ssg75
g435
sg68
(lp442
S'env'
p443
asbag61
(g82
g63
NtRp444
(dp445
g66
(dp446
g93
g94
ssg75
g435
sg68
(lp447
S':'
asbag61
(g82
g63
NtRp448
(dp449
g66
(dp450
sg75
g435
sg68
(lp451
g61
(g62
g63
NtRp452
(dp453
g66
(dp454
g74
I5
ssg75
g448
sg68
(lp455
g61
(g70
g63
NtRp456
(dp457
g66
(dp458
g74
I4
ssg75
Nsg68
(lp459
g61
(g77
g63
NtRp460
(dp461
g66
(dp462
sg75
g456
sg68
(lp463
g61
(g82
g63
NtRp464
(dp465
g66
(dp466
g86
g87
ssg75
g460
sg68
(lp467
S'app_folders'
p468
asbag61
(g82
g63
NtRp469
(dp470
g66
(dp471
g93
g94
ssg75
g460
sg68
(lp472
S':'
asbag61
(g82
g63
NtRp473
(dp474
g66
(dp475
sg75
g460
sg68
(lp476
g61
(g62
g63
NtRp477
(dp478
g66
(dp479
g74
I4
ssg75
g473
sg68
(lp480
S"set(['/home/arvin/web2py/applications/welcome/'])"
p481
asbasbasbag61
(g77
g63
NtRp482
(dp483
g66
(dp484
sg75
g456
sg68
(lp485
g61
(g82
g63
NtRp486
(dp487
g66
(dp488
g86
g87
ssg75
g482
sg68
(lp489
S'applications_parent'
p490
asbag61
(g82
g63
NtRp491
(dp492
g66
(dp493
g93
g94
ssg75
g482
sg68
(lp494
S':'
asbag61
(g82
g63
NtRp495
(dp496
g66
(dp497
sg75
g482
sg68
(lp498
g61
(g62
g63
NtRp499
(dp500
g66
(dp501
g74
I4
ssg75
g495
sg68
(lp502
S'/home/arvin/web2py'
p503
asbasbasbag61
(g77
g63
NtRp504
(dp505
g66
(dp506
sg75
g456
sg68
(lp507
g61
(g82
g63
NtRp508
(dp509
g66
(dp510
g86
g87
ssg75
g504
sg68
(lp511
S'content_length'
p512
asbag61
(g82
g63
NtRp513
(dp514
g66
(dp515
g93
g94
ssg75
g504
sg68
(lp516
S':'
asbag61
(g82
g63
NtRp517
(dp518
g66
(dp519
sg75
g504
sg68
(lp520
g61
(g62
g63
NtRp521
(dp522
g66
(dp523
g74
I4
ssg75
g517
sg68
(lp524
S''
asbasbasbag61
(g77
g63
NtRp525
(dp526
g66
(dp527
sg75
g456
sg68
(lp528
g61
(g82
g63
NtRp529
(dp530
g66
(dp531
g86
g87
ssg75
g525
sg68
(lp532
S'content_type'
p533
asbag61
(g82
g63
NtRp534
(dp535
g66
(dp536
g93
g94
ssg75
g525
sg68
(lp537
S':'
asbag61
(g82
g63
NtRp538
(dp539
g66
(dp540
sg75
g525
sg68
(lp541
g61
(g62
g63
NtRp542
(dp543
g66
(dp544
g74
I4
ssg75
g538
sg68
(lp545
S''
asbasbasbag61
(g77
g63
NtRp546
(dp547
g66
(dp548
sg75
g456
sg68
(lp549
g61
(g82
g63
NtRp550
(dp551
g66
(dp552
g86
g87
ssg75
g546
sg68
(lp553
S'db_sessions'
p554
asbag61
(g82
g63
NtRp555
(dp556
g66
(dp557
g93
g94
ssg75
g546
sg68
(lp558
S':'
asbag61
(g82
g63
NtRp559
(dp560
g66
(dp561
sg75
g546
sg68
(lp562
g61
(g62
g63
NtRp563
(dp564
g66
(dp565
g74
I4
ssg75
g559
sg68
(lp566
S'set([])'
p567
asbasbasbag61
(g77
g63
NtRp568
(dp569
g66
(dp570
sg75
g456
sg68
(lp571
g61
(g82
g63
NtRp572
(dp573
g66
(dp574
g86
g87
ssg75
g568
sg68
(lp575
S'debugging'
p576
asbag61
(g82
g63
NtRp577
(dp578
g66
(dp579
g93
g94
ssg75
g568
sg68
(lp580
S':'
asbag61
(g82
g63
NtRp581
(dp582
g66
(dp583
sg75
g568
sg68
(lp584
g61
(g62
g63
NtRp585
(dp586
g66
(dp587
g74
I4
ssg75
g581
sg68
(lp588
g104
asbasbasbag61
(g77
g63
NtRp589
(dp590
g66
(dp591
sg75
g456
sg68
(lp592
g61
(g82
g63
NtRp593
(dp594
g66
(dp595
g86
g87
ssg75
g589
sg68
(lp596
S'document_root'
p597
asbag61
(g82
g63
NtRp598
(dp599
g66
(dp600
g93
g94
ssg75
g589
sg68
(lp601
S':'
asbag61
(g82
g63
NtRp602
(dp603
g66
(dp604
sg75
g589
sg68
(lp605
g61
(g62
g63
NtRp606
(dp607
g66
(dp608
g74
I4
ssg75
g602
sg68
(lp609
S'/usr/local/nginx/html'
p610
asbasbasbag61
(g77
g63
NtRp611
(dp612
g66
(dp613
sg75
g456
sg68
(lp614
g61
(g82
g63
NtRp615
(dp616
g66
(dp617
g86
g87
ssg75
g611
sg68
(lp618
S'gluon_parent'
p619
asbag61
(g82
g63
NtRp620
(dp621
g66
(dp622
g93
g94
ssg75
g611
sg68
(lp623
S':'
asbag61
(g82
g63
NtRp624
(dp625
g66
(dp626
sg75
g611
sg68
(lp627
g61
(g62
g63
NtRp628
(dp629
g66
(dp630
g74
I4
ssg75
g624
sg68
(lp631
g503
asbasbasbag61
(g77
g63
NtRp632
(dp633
g66
(dp634
sg75
g456
sg68
(lp635
g61
(g82
g63
NtRp636
(dp637
g66
(dp638
g86
g87
ssg75
g632
sg68
(lp639
S'http_accept'
p640
asbag61
(g82
g63
NtRp641
(dp642
g66
(dp643
g93
g94
ssg75
g632
sg68
(lp644
S':'
asbag61
(g82
g63
NtRp645
(dp646
g66
(dp647
sg75
g632
sg68
(lp648
g61
(g62
g63
NtRp649
(dp650
g66
(dp651
g74
I4
ssg75
g645
sg68
(lp652
S'text/html,application/xhtml+xml,application/xml;q=0.9,*/*;q=0.8'
p653
asbasbasbag61
(g77
g63
NtRp654
(dp655
g66
(dp656
sg75
g456
sg68
(lp657
g61
(g82
g63
NtRp658
(dp659
g66
(dp660
g86
g87
ssg75
g654
sg68
(lp661
S'http_accept_charset'
p662
asbag61
(g82
g63
NtRp663
(dp664
g66
(dp665
g93
g94
ssg75
g654
sg68
(lp666
S':'
asbag61
(g82
g63
NtRp667
(dp668
g66
(dp669
sg75
g654
sg68
(lp670
g61
(g62
g63
NtRp671
(dp672
g66
(dp673
g74
I4
ssg75
g667
sg68
(lp674
S'ISO-8859-1,utf-8;q=0.7,*;q=0.7'
p675
asbasbasbag61
(g77
g63
NtRp676
(dp677
g66
(dp678
sg75
g456
sg68
(lp679
g61
(g82
g63
NtRp680
(dp681
g66
(dp682
g86
g87
ssg75
g676
sg68
(lp683
S'http_accept_encoding'
p684
asbag61
(g82
g63
NtRp685
(dp686
g66
(dp687
g93
g94
ssg75
g676
sg68
(lp688
S':'
asbag61
(g82
g63
NtRp689
(dp690
g66
(dp691
sg75
g676
sg68
(lp692
g61
(g62
g63
NtRp693
(dp694
g66
(dp695
g74
I4
ssg75
g689
sg68
(lp696
S'gzip, deflate'
p697
asbasbasbag61
(g77
g63
NtRp698
(dp699
g66
(dp700
sg75
g456
sg68
(lp701
g61
(g82
g63
NtRp702
(dp703
g66
(dp704
g86
g87
ssg75
g698
sg68
(lp705
S'http_accept_language'
p706
asbag61
(g82
g63
NtRp707
(dp708
g66
(dp709
g93
g94
ssg75
g698
sg68
(lp710
S':'
asbag61
(g82
g63
NtRp711
(dp712
g66
(dp713
sg75
g698
sg68
(lp714
g61
(g62
g63
NtRp715
(dp716
g66
(dp717
g74
I4
ssg75
g711
sg68
(lp718
S'en-us,en;q=0.5'
p719
asbasbasbag61
(g77
g63
NtRp720
(dp721
g66
(dp722
sg75
g456
sg68
(lp723
g61
(g82
g63
NtRp724
(dp725
g66
(dp726
g86
g87
ssg75
g720
sg68
(lp727
S'http_connection'
p728
asbag61
(g82
g63
NtRp729
(dp730
g66
(dp731
g93
g94
ssg75
g720
sg68
(lp732
S':'
asbag61
(g82
g63
NtRp733
(dp734
g66
(dp735
sg75
g720
sg68
(lp736
g61
(g62
g63
NtRp737
(dp738
g66
(dp739
g74
I4
ssg75
g733
sg68
(lp740
S'keep-alive'
p741
asbasbasbag61
(g77
g63
NtRp742
(dp743
g66
(dp744
sg75
g456
sg68
(lp745
g61
(g82
g63
NtRp746
(dp747
g66
(dp748
g86
g87
ssg75
g742
sg68
(lp749
S'http_cookie'
p750
asbag61
(g82
g63
NtRp751
(dp752
g66
(dp753
g93
g94
ssg75
g742
sg68
(lp754
S':'
asbag61
(g82
g63
NtRp755
(dp756
g66
(dp757
sg75
g742
sg68
(lp758
g61
(g62
g63
NtRp759
(dp760
g66
(dp761
g74
I4
ssg75
g755
sg68
(lp762
S'__utma=159863860.1937463137.1307715134.1308586258.1308598504.25; __utmz=159863860.1307715134.1.1.utmcsr=(direct)|utmccn=(direct)|utmcmd=(none); session_id_init=186.32.48.60-302c03b0-d800-439d-9ea0-600a4ab492a9'
p763
asbasbasbag61
(g77
g63
NtRp764
(dp765
g66
(dp766
sg75
g456
sg68
(lp767
g61
(g82
g63
NtRp768
(dp769
g66
(dp770
g86
g87
ssg75
g764
sg68
(lp771
S'http_host'
p772
asbag61
(g82
g63
NtRp773
(dp774
g66
(dp775
g93
g94
ssg75
g764
sg68
(lp776
S':'
asbag61
(g82
g63
NtRp777
(dp778
g66
(dp779
sg75
g764
sg68
(lp780
g61
(g62
g63
NtRp781
(dp782
g66
(dp783
g74
I4
ssg75
g777
sg68
(lp784
S'a.xchg.com'
p785
asbasbasbag61
(g77
g63
NtRp786
(dp787
g66
(dp788
sg75
g456
sg68
(lp789
g61
(g82
g63
NtRp790
(dp791
g66
(dp792
g86
g87
ssg75
g786
sg68
(lp793
S'http_keep_alive'
p794
asbag61
(g82
g63
NtRp795
(dp796
g66
(dp797
g93
g94
ssg75
g786
sg68
(lp798
S':'
asbag61
(g82
g63
NtRp799
(dp800
g66
(dp801
sg75
g786
sg68
(lp802
g61
(g62
g63
NtRp803
(dp804
g66
(dp805
g74
I4
ssg75
g799
sg68
(lp806
S'115'
p807
asbasbasbag61
(g77
g63
NtRp808
(dp809
g66
(dp810
sg75
g456
sg68
(lp811
g61
(g82
g63
NtRp812
(dp813
g66
(dp814
g86
g87
ssg75
g808
sg68
(lp815
S'http_user_agent'
p816
asbag61
(g82
g63
NtRp817
(dp818
g66
(dp819
g93
g94
ssg75
g808
sg68
(lp820
S':'
asbag61
(g82
g63
NtRp821
(dp822
g66
(dp823
sg75
g808
sg68
(lp824
g61
(g62
g63
NtRp825
(dp826
g66
(dp827
g74
I4
ssg75
g821
sg68
(lp828
S'Mozilla/5.0 (Windows NT 6.1; WOW64; rv:2.0.1) Gecko/20100101 Firefox/4.0.1'
p829
asbasbasbag61
(g77
g63
NtRp830
(dp831
g66
(dp832
sg75
g456
sg68
(lp833
g61
(g82
g63
NtRp834
(dp835
g66
(dp836
g86
g87
ssg75
g830
sg68
(lp837
S'path_info'
p838
asbag61
(g82
g63
NtRp839
(dp840
g66
(dp841
g93
g94
ssg75
g830
sg68
(lp842
S':'
asbag61
(g82
g63
NtRp843
(dp844
g66
(dp845
sg75
g830
sg68
(lp846
g61
(g62
g63
NtRp847
(dp848
g66
(dp849
g74
I4
ssg75
g843
sg68
(lp850
S'/welcome/default/index'
p851
asbasbasbag61
(g77
g63
NtRp852
(dp853
g66
(dp854
sg75
g456
sg68
(lp855
g61
(g82
g63
NtRp856
(dp857
g66
(dp858
g86
g87
ssg75
g852
sg68
(lp859
S'query_string'
p860
asbag61
(g82
g63
NtRp861
(dp862
g66
(dp863
g93
g94
ssg75
g852
sg68
(lp864
S':'
asbag61
(g82
g63
NtRp865
(dp866
g66
(dp867
sg75
g852
sg68
(lp868
g61
(g62
g63
NtRp869
(dp870
g66
(dp871
g74
I4
ssg75
g865
sg68
(lp872
S''
asbasbasbag61
(g77
g63
NtRp873
(dp874
g66
(dp875
sg75
g456
sg68
(lp876
g61
(g82
g63
NtRp877
(dp878
g66
(dp879
g86
g87
ssg75
g873
sg68
(lp880
S'remote_addr'
p881
asbag61
(g82
g63
NtRp882
(dp883
g66
(dp884
g93
g94
ssg75
g873
sg68
(lp885
S':'
asbag61
(g82
g63
NtRp886
(dp887
g66
(dp888
sg75
g873
sg68
(lp889
g61
(g62
g63
NtRp890
(dp891
g66
(dp892
g74
I4
ssg75
g886
sg68
(lp893
g194
asbasbasbag61
(g77
g63
NtRp894
(dp895
g66
(dp896
sg75
g456
sg68
(lp897
g61
(g82
g63
NtRp898
(dp899
g66
(dp900
g86
g87
ssg75
g894
sg68
(lp901
S'remote_port'
p902
asbag61
(g82
g63
NtRp903
(dp904
g66
(dp905
g93
g94
ssg75
g894
sg68
(lp906
S':'
asbag61
(g82
g63
NtRp907
(dp908
g66
(dp909
sg75
g894
sg68
(lp910
g61
(g62
g63
NtRp911
(dp912
g66
(dp913
g74
I4
ssg75
g907
sg68
(lp914
S'62600'
p915
asbasbasbag61
(g77
g63
NtRp916
(dp917
g66
(dp918
sg75
g456
sg68
(lp919
g61
(g82
g63
NtRp920
(dp921
g66
(dp922
g86
g87
ssg75
g916
sg68
(lp923
S'request_method'
p924
asbag61
(g82
g63
NtRp925
(dp926
g66
(dp927
g93
g94
ssg75
g916
sg68
(lp928
S':'
asbag61
(g82
g63
NtRp929
(dp930
g66
(dp931
sg75
g916
sg68
(lp932
g61
(g62
g63
NtRp933
(dp934
g66
(dp935
g74
I4
ssg75
g929
sg68
(lp936
S'GET'
p937
asbasbasbag61
(g77
g63
NtRp938
(dp939
g66
(dp940
sg75
g456
sg68
(lp941
g61
(g82
g63
NtRp942
(dp943
g66
(dp944
g86
g87
ssg75
g938
sg68
(lp945
S'request_uri'
p946
asbag61
(g82
g63
NtRp947
(dp948
g66
(dp949
g93
g94
ssg75
g938
sg68
(lp950
S':'
asbag61
(g82
g63
NtRp951
(dp952
g66
(dp953
sg75
g938
sg68
(lp954
g61
(g62
g63
NtRp955
(dp956
g66
(dp957
g74
I4
ssg75
g951
sg68
(lp958
S'/welcome/default/index'
p959
asbasbasbag61
(g77
g63
NtRp960
(dp961
g66
(dp962
sg75
g456
sg68
(lp963
g61
(g82
g63
NtRp964
(dp965
g66
(dp966
g86
g87
ssg75
g960
sg68
(lp967
S'server_name'
p968
asbag61
(g82
g63
NtRp969
(dp970
g66
(dp971
g93
g94
ssg75
g960
sg68
(lp972
S':'
asbag61
(g82
g63
NtRp973
(dp974
g66
(dp975
sg75
g960
sg68
(lp976
g61
(g62
g63
NtRp977
(dp978
g66
(dp979
g74
I4
ssg75
g973
sg68
(lp980
S'a.xchg.com'
p981
asbasbasbag61
(g77
g63
NtRp982
(dp983
g66
(dp984
sg75
g456
sg68
(lp985
g61
(g82
g63
NtRp986
(dp987
g66
(dp988
g86
g87
ssg75
g982
sg68
(lp989
S'server_port'
p990
asbag61
(g82
g63
NtRp991
(dp992
g66
(dp993
g93
g94
ssg75
g982
sg68
(lp994
S':'
asbag61
(g82
g63
NtRp995
(dp996
g66
(dp997
sg75
g982
sg68
(lp998
g61
(g62
g63
NtRp999
(dp1000
g66
(dp1001
g74
I4
ssg75
g995
sg68
(lp1002
S'80'
p1003
asbasbasbag61
(g77
g63
NtRp1004
(dp1005
g66
(dp1006
sg75
g456
sg68
(lp1007
g61
(g82
g63
NtRp1008
(dp1009
g66
(dp1010
g86
g87
ssg75
g1004
sg68
(lp1011
S'server_protocol'
p1012
asbag61
(g82
g63
NtRp1013
(dp1014
g66
(dp1015
g93
g94
ssg75
g1004
sg68
(lp1016
S':'
asbag61
(g82
g63
NtRp1017
(dp1018
g66
(dp1019
sg75
g1004
sg68
(lp1020
g61
(g62
g63
NtRp1021
(dp1022
g66
(dp1023
g74
I4
ssg75
g1017
sg68
(lp1024
S'HTTP/1.1'
p1025
asbasbasbag61
(g77
g63
NtRp1026
(dp1027
g66
(dp1028
sg75
g456
sg68
(lp1029
g61
(g82
g63
NtRp1030
(dp1031
g66
(dp1032
g86
g87
ssg75
g1026
sg68
(lp1033
S'uwsgi_scheme'
p1034
asbag61
(g82
g63
NtRp1035
(dp1036
g66
(dp1037
g93
g94
ssg75
g1026
sg68
(lp1038
S':'
asbag61
(g82
g63
NtRp1039
(dp1040
g66
(dp1041
sg75
g1026
sg68
(lp1042
g61
(g62
g63
NtRp1043
(dp1044
g66
(dp1045
g74
I4
ssg75
g1039
sg68
(lp1046
S'http'
p1047
asbasbasbag61
(g77
g63
NtRp1048
(dp1049
g66
(dp1050
sg75
g456
sg68
(lp1051
g61
(g82
g63
NtRp1052
(dp1053
g66
(dp1054
g86
g87
ssg75
g1048
sg68
(lp1055
S'uwsgi_version'
p1056
asbag61
(g82
g63
NtRp1057
(dp1058
g66
(dp1059
g93
g94
ssg75
g1048
sg68
(lp1060
S':'
asbag61
(g82
g63
NtRp1061
(dp1062
g66
(dp1063
sg75
g1048
sg68
(lp1064
g61
(g62
g63
NtRp1065
(dp1066
g66
(dp1067
g74
I4
ssg75
g1061
sg68
(lp1068
S'0.9.6.8'
p1069
asbasbasbag61
(g77
g63
NtRp1070
(dp1071
g66
(dp1072
sg75
g456
sg68
(lp1073
g61
(g82
g63
NtRp1074
(dp1075
g66
(dp1076
g86
g87
ssg75
g1070
sg68
(lp1077
S'web2py_path'
p1078
asbag61
(g82
g63
NtRp1079
(dp1080
g66
(dp1081
g93
g94
ssg75
g1070
sg68
(lp1082
S':'
asbag61
(g82
g63
NtRp1083
(dp1084
g66
(dp1085
sg75
g1070
sg68
(lp1086
g61
(g62
g63
NtRp1087
(dp1088
g66
(dp1089
g74
I4
ssg75
g1083
sg68
(lp1090
g503
asbasbasbag61
(g77
g63
NtRp1091
(dp1092
g66
(dp1093
sg75
g456
sg68
(lp1094
g61
(g82
g63
NtRp1095
(dp1096
g66
(dp1097
g86
g87
ssg75
g1091
sg68
(lp1098
S'web2py_version'
p1099
asbag61
(g82
g63
NtRp1100
(dp1101
g66
(dp1102
g93
g94
ssg75
g1091
sg68
(lp1103
S':'
asbag61
(g82
g63
NtRp1104
(dp1105
g66
(dp1106
sg75
g1091
sg68
(lp1107
g61
(g62
g63
NtRp1108
(dp1109
g66
(dp1110
g74
I4
ssg75
g1104
sg68
(lp1111
S'Version 1.96.4 (2011-06-15 22:09:34)\n'
p1112
asbasbasbag61
(g77
g63
NtRp1113
(dp1114
g66
(dp1115
sg75
g456
sg68
(lp1116
g61
(g82
g63
NtRp1117
(dp1118
g66
(dp1119
g86
g87
ssg75
g1113
sg68
(lp1120
S'wsgi_errors'
p1121
asbag61
(g82
g63
NtRp1122
(dp1123
g66
(dp1124
g93
g94
ssg75
g1113
sg68
(lp1125
S':'
asbag61
(g82
g63
NtRp1126
(dp1127
g66
(dp1128
sg75
g1113
sg68
(lp1129
g61
(g62
g63
NtRp1130
(dp1131
g66
(dp1132
g74
I4
ssg75
g1126
sg68
(lp1133
S"<open file 'wsgi_input', mode 'w' at 0x8981910>"
p1134
asbasbasbag61
(g77
g63
NtRp1135
(dp1136
g66
(dp1137
sg75
g456
sg68
(lp1138
g61
(g82
g63
NtRp1139
(dp1140
g66
(dp1141
g86
g87
ssg75
g1135
sg68
(lp1142
S'wsgi_file_wrapper'
p1143
asbag61
(g82
g63
NtRp1144
(dp1145
g66
(dp1146
g93
g94
ssg75
g1135
sg68
(lp1147
S':'
asbag61
(g82
g63
NtRp1148
(dp1149
g66
(dp1150
sg75
g1135
sg68
(lp1151
g61
(g62
g63
NtRp1152
(dp1153
g66
(dp1154
g74
I4
ssg75
g1148
sg68
(lp1155
S'<built-in function uwsgi_sendfile>'
p1156
asbasbasbag61
(g77
g63
NtRp1157
(dp1158
g66
(dp1159
sg75
g456
sg68
(lp1160
g61
(g82
g63
NtRp1161
(dp1162
g66
(dp1163
g86
g87
ssg75
g1157
sg68
(lp1164
S'wsgi_input'
p1165
asbag61
(g82
g63
NtRp1166
(dp1167
g66
(dp1168
g93
g94
ssg75
g1157
sg68
(lp1169
S':'
asbag61
(g82
g63
NtRp1170
(dp1171
g66
(dp1172
sg75
g1157
sg68
(lp1173
g61
(g62
g63
NtRp1174
(dp1175
g66
(dp1176
g74
I4
ssg75
g1170
sg68
(lp1177
S"<open file 'wsgi_input', mode 'r' at 0x89819c0>"
p1178
asbasbasbag61
(g77
g63
NtRp1179
(dp1180
g66
(dp1181
sg75
g456
sg68
(lp1182
g61
(g82
g63
NtRp1183
(dp1184
g66
(dp1185
g86
g87
ssg75
g1179
sg68
(lp1186
S'wsgi_multiprocess'
p1187
asbag61
(g82
g63
NtRp1188
(dp1189
g66
(dp1190
g93
g94
ssg75
g1179
sg68
(lp1191
S':'
asbag61
(g82
g63
NtRp1192
(dp1193
g66
(dp1194
sg75
g1179
sg68
(lp1195
g61
(g62
g63
NtRp1196
(dp1197
g66
(dp1198
g74
I4
ssg75
g1192
sg68
(lp1199
g104
asbasbasbag61
(g77
g63
NtRp1200
(dp1201
g66
(dp1202
sg75
g456
sg68
(lp1203
g61
(g82
g63
NtRp1204
(dp1205
g66
(dp1206
g86
g87
ssg75
g1200
sg68
(lp1207
S'wsgi_multithread'
p1208
asbag61
(g82
g63
NtRp1209
(dp1210
g66
(dp1211
g93
g94
ssg75
g1200
sg68
(lp1212
S':'
asbag61
(g82
g63
NtRp1213
(dp1214
g66
(dp1215
sg75
g1200
sg68
(lp1216
g61
(g62
g63
NtRp1217
(dp1218
g66
(dp1219
g74
I4
ssg75
g1213
sg68
(lp1220
g104
asbasbasbag61
(g77
g63
NtRp1221
(dp1222
g66
(dp1223
sg75
g456
sg68
(lp1224
g61
(g82
g63
NtRp1225
(dp1226
g66
(dp1227
g86
g87
ssg75
g1221
sg68
(lp1228
S'wsgi_run_once'
p1229
asbag61
(g82
g63
NtRp1230
(dp1231
g66
(dp1232
g93
g94
ssg75
g1221
sg68
(lp1233
S':'
asbag61
(g82
g63
NtRp1234
(dp1235
g66
(dp1236
sg75
g1221
sg68
(lp1237
g61
(g62
g63
NtRp1238
(dp1239
g66
(dp1240
g74
I4
ssg75
g1234
sg68
(lp1241
g104
asbasbasbag61
(g77
g63
NtRp1242
(dp1243
g66
(dp1244
sg75
g456
sg68
(lp1245
g61
(g82
g63
NtRp1246
(dp1247
g66
(dp1248
g86
g87
ssg75
g1242
sg68
(lp1249
S'wsgi_url_scheme'
p1250
asbag61
(g82
g63
NtRp1251
(dp1252
g66
(dp1253
g93
g94
ssg75
g1242
sg68
(lp1254
S':'
asbag61
(g82
g63
NtRp1255
(dp1256
g66
(dp1257
sg75
g1242
sg68
(lp1258
g61
(g62
g63
NtRp1259
(dp1260
g66
(dp1261
g74
I4
ssg75
g1255
sg68
(lp1262
S'http'
p1263
asbasbasbag61
(g77
g63
NtRp1264
(dp1265
g66
(dp1266
sg75
g456
sg68
(lp1267
g61
(g82
g63
NtRp1268
(dp1269
g66
(dp1270
g86
g87
ssg75
g1264
sg68
(lp1271
S'wsgi_version'
p1272
asbag61
(g82
g63
NtRp1273
(dp1274
g66
(dp1275
g93
g94
ssg75
g1264
sg68
(lp1276
S':'
asbag61
(g82
g63
NtRp1277
(dp1278
g66
(dp1279
sg75
g1264
sg68
(lp1280
g61
(g62
g63
NtRp1281
(dp1282
g66
(dp1283
g74
I4
ssg75
g1277
sg68
(lp1284
g61
(g70
g63
NtRp1285
(dp1286
g66
(dp1287
g74
I3
ssg75
Nsg68
(lp1288
g61
(g77
g63
NtRp1289
(dp1290
g66
(dp1291
sg75
g1285
sg68
(lp1292
g61
(g82
g63
NtRp1293
(dp1294
g66
(dp1295
sg75
g1289
sg68
(lp1296
g61
(g62
g63
NtRp1297
(dp1298
g66
(dp1299
g74
I3
ssg75
g1293
sg68
(lp1300
S'1'
asbasbasbag61
(g77
g63
NtRp1301
(dp1302
g66
(dp1303
sg75
g1285
sg68
(lp1304
g61
(g82
g63
NtRp1305
(dp1306
g66
(dp1307
sg75
g1301
sg68
(lp1308
g61
(g62
g63
NtRp1309
(dp1310
g66
(dp1311
g74
I3
ssg75
g1305
sg68
(lp1312
S'0'
asbasbasbasbasbasbasbasbasbasbasbag61
(g77
g63
NtRp1313
(dp1314
g66
(dp1315
sg75
g71
sg68
(lp1316
g61
(g82
g63
NtRp1317
(dp1318
g66
(dp1319
g86
g87
ssg75
g1313
sg68
(lp1320
S'extension'
p1321
asbag61
(g82
g63
NtRp1322
(dp1323
g66
(dp1324
g93
g94
ssg75
g1313
sg68
(lp1325
S':'
asbag61
(g82
g63
NtRp1326
(dp1327
g66
(dp1328
sg75
g1313
sg68
(lp1329
g61
(g62
g63
NtRp1330
(dp1331
g66
(dp1332
g74
I5
ssg75
g1326
sg68
(lp1333
S'html'
p1334
asbasbasbag61
(g77
g63
NtRp1335
(dp1336
g66
(dp1337
sg75
g71
sg68
(lp1338
g61
(g82
g63
NtRp1339
(dp1340
g66
(dp1341
g86
g87
ssg75
g1335
sg68
(lp1342
S'folder'
p1343
asbag61
(g82
g63
NtRp1344
(dp1345
g66
(dp1346
g93
g94
ssg75
g1335
sg68
(lp1347
S':'
asbag61
(g82
g63
NtRp1348
(dp1349
g66
(dp1350
sg75
g1335
sg68
(lp1351
g61
(g62
g63
NtRp1352
(dp1353
g66
(dp1354
g74
I5
ssg75
g1348
sg68
(lp1355
S'/home/arvin/web2py/applications/welcome/'
p1356
asbasbasbag61
(g77
g63
NtRp1357
(dp1358
g66
(dp1359
sg75
g71
sg68
(lp1360
g61
(g82
g63
NtRp1361
(dp1362
g66
(dp1363
g86
g87
ssg75
g1357
sg68
(lp1364
S'function'
p1365
asbag61
(g82
g63
NtRp1366
(dp1367
g66
(dp1368
g93
g94
ssg75
g1357
sg68
(lp1369
S':'
asbag61
(g82
g63
NtRp1370
(dp1371
g66
(dp1372
sg75
g1357
sg68
(lp1373
g61
(g62
g63
NtRp1374
(dp1375
g66
(dp1376
g74
I5
ssg75
g1370
sg68
(lp1377
S'index'
p1378
asbasbasbag61
(g77
g63
NtRp1379
(dp1380
g66
(dp1381
sg75
g71
sg68
(lp1382
g61
(g82
g63
NtRp1383
(dp1384
g66
(dp1385
g86
g87
ssg75
g1379
sg68
(lp1386
S'get_vars'
p1387
asbag61
(g82
g63
NtRp1388
(dp1389
g66
(dp1390
g93
g94
ssg75
g1379
sg68
(lp1391
S':'
asbag61
(g82
g63
NtRp1392
(dp1393
g66
(dp1394
sg75
g1379
sg68
(lp1395
g61
(g62
g63
NtRp1396
(dp1397
g66
(dp1398
g74
I5
ssg75
g1392
sg68
(lp1399
g61
(g70
g63
NtRp1400
(dp1401
g66
(dp1402
g74
I4
ssg75
Nsg68
(lp1403
sbasbasbasbag61
(g77
g63
NtRp1404
(dp1405
g66
(dp1406
sg75
g71
sg68
(lp1407
g61
(g82
g63
NtRp1408
(dp1409
g66
(dp1410
g86
g87
ssg75
g1404
sg68
(lp1411
S'is_https'
p1412
asbag61
(g82
g63
NtRp1413
(dp1414
g66
(dp1415
g93
g94
ssg75
g1404
sg68
(lp1416
S':'
asbag61
(g82
g63
NtRp1417
(dp1418
g66
(dp1419
sg75
g1404
sg68
(lp1420
g61
(g62
g63
NtRp1421
(dp1422
g66
(dp1423
g74
I5
ssg75
g1417
sg68
(lp1424
g104
asbasbasbag61
(g77
g63
NtRp1425
(dp1426
g66
(dp1427
sg75
g71
sg68
(lp1428
g61
(g82
g63
NtRp1429
(dp1430
g66
(dp1431
g86
g87
ssg75
g1425
sg68
(lp1432
S'is_local'
p1433
asbag61
(g82
g63
NtRp1434
(dp1435
g66
(dp1436
g93
g94
ssg75
g1425
sg68
(lp1437
S':'
asbag61
(g82
g63
NtRp1438
(dp1439
g66
(dp1440
sg75
g1425
sg68
(lp1441
g61
(g62
g63
NtRp1442
(dp1443
g66
(dp1444
g74
I5
ssg75
g1438
sg68
(lp1445
g104
asbasbasbag61
(g77
g63
NtRp1446
(dp1447
g66
(dp1448
sg75
g71
sg68
(lp1449
g61
(g82
g63
NtRp1450
(dp1451
g66
(dp1452
g86
g87
ssg75
g1446
sg68
(lp1453
S'is_restful'
p1454
asbag61
(g82
g63
NtRp1455
(dp1456
g66
(dp1457
g93
g94
ssg75
g1446
sg68
(lp1458
S':'
asbag61
(g82
g63
NtRp1459
(dp1460
g66
(dp1461
sg75
g1446
sg68
(lp1462
g61
(g62
g63
NtRp1463
(dp1464
g66
(dp1465
g74
I5
ssg75
g1459
sg68
(lp1466
g104
asbasbasbag61
(g77
g63
NtRp1467
(dp1468
g66
(dp1469
sg75
g71
sg68
(lp1470
g61
(g82
g63
NtRp1471
(dp1472
g66
(dp1473
g86
g87
ssg75
g1467
sg68
(lp1474
S'now'
p1475
asbag61
(g82
g63
NtRp1476
(dp1477
g66
(dp1478
g93
g94
ssg75
g1467
sg68
(lp1479
S':'
asbag61
(g82
g63
NtRp1480
(dp1481
g66
(dp1482
sg75
g1467
sg68
(lp1483
g61
(g62
g63
NtRp1484
(dp1485
g66
(dp1486
g74
I5
ssg75
g1480
sg68
(lp1487
S'datetime.datetime(2011, 6, 21, 13, 34, 20, 59660)'
p1488
asbasbasbag61
(g77
g63
NtRp1489
(dp1490
g66
(dp1491
sg75
g71
sg68
(lp1492
g61
(g82
g63
NtRp1493
(dp1494
g66
(dp1495
g86
g87
ssg75
g1489
sg68
(lp1496
S'post_vars'
p1497
asbag61
(g82
g63
NtRp1498
(dp1499
g66
(dp1500
g93
g94
ssg75
g1489
sg68
(lp1501
S':'
asbag61
(g82
g63
NtRp1502
(dp1503
g66
(dp1504
sg75
g1489
sg68
(lp1505
g61
(g62
g63
NtRp1506
(dp1507
g66
(dp1508
g74
I5
ssg75
g1502
sg68
(lp1509
g61
(g70
g63
NtRp1510
(dp1511
g66
(dp1512
g74
I4
ssg75
Nsg68
(lp1513
sbasbasbasbag61
(g77
g63
NtRp1514
(dp1515
g66
(dp1516
sg75
g71
sg68
(lp1517
g61
(g82
g63
NtRp1518
(dp1519
g66
(dp1520
g86
g87
ssg75
g1514
sg68
(lp1521
S'url'
p1522
asbag61
(g82
g63
NtRp1523
(dp1524
g66
(dp1525
g93
g94
ssg75
g1514
sg68
(lp1526
S':'
asbag61
(g82
g63
NtRp1527
(dp1528
g66
(dp1529
sg75
g1514
sg68
(lp1530
g61
(g62
g63
NtRp1531
(dp1532
g66
(dp1533
g74
I5
ssg75
g1527
sg68
(lp1534
S'/welcome/default/index'
p1535
asbasbasbag61
(g77
g63
NtRp1536
(dp1537
g66
(dp1538
sg75
g71
sg68
(lp1539
g61
(g82
g63
NtRp1540
(dp1541
g66
(dp1542
g86
g87
ssg75
g1536
sg68
(lp1543
S'uuid'
p1544
asbag61
(g82
g63
NtRp1545
(dp1546
g66
(dp1547
g93
g94
ssg75
g1536
sg68
(lp1548
S':'
asbag61
(g82
g63
NtRp1549
(dp1550
g66
(dp1551
sg75
g1536
sg68
(lp1552
g61
(g62
g63
NtRp1553
(dp1554
g66
(dp1555
g74
I5
ssg75
g1549
sg68
(lp1556
S'welcome/186.32.48.60.2011-06-21.13-34-20.625d64fb-7198-40c6-b124-fdc4877c0df1'
p1557
asbasbasbag61
(g77
g63
NtRp1558
(dp1559
g66
(dp1560
sg75
g71
sg68
(lp1561
g61
(g82
g63
NtRp1562
(dp1563
g66
(dp1564
g86
g87
ssg75
g1558
sg68
(lp1565
S'vars'
p1566
asbag61
(g82
g63
NtRp1567
(dp1568
g66
(dp1569
g93
g94
ssg75
g1558
sg68
(lp1570
S':'
asbag61
(g82
g63
NtRp1571
(dp1572
g66
(dp1573
sg75
g1558
sg68
(lp1574
g61
(g62
g63
NtRp1575
(dp1576
g66
(dp1577
g74
I5
ssg75
g1571
sg68
(lp1578
g61
(g70
g63
NtRp1579
(dp1580
g66
(dp1581
g74
I4
ssg75
Nsg68
(lp1582
sbasbasbasbag61
(g77
g63
NtRp1583
(dp1584
g66
(dp1585
sg75
g71
sg68
(lp1586
g61
(g82
g63
NtRp1587
(dp1588
g66
(dp1589
g86
g87
ssg75
g1583
sg68
(lp1590
S'wsgi'
p1591
asbag61
(g82
g63
NtRp1592
(dp1593
g66
(dp1594
g93
g94
ssg75
g1583
sg68
(lp1595
S':'
asbag61
(g82
g63
NtRp1596
(dp1597
g66
(dp1598
sg75
g1583
sg68
(lp1599
g61
(g62
g63
NtRp1600
(dp1601
g66
(dp1602
g74
I5
ssg75
g1596
sg68
(lp1603
g61
(g70
g63
NtRp1604
(dp1605
g66
(dp1606
g74
I4
ssg75
Nsg68
(lp1607
g61
(g77
g63
NtRp1608
(dp1609
g66
(dp1610
sg75
g1604
sg68
(lp1611
g61
(g82
g63
NtRp1612
(dp1613
g66
(dp1614
g86
g87
ssg75
g1608
sg68
(lp1615
S'environ'
p1616
asbag61
(g82
g63
NtRp1617
(dp1618
g66
(dp1619
g93
g94
ssg75
g1608
sg68
(lp1620
S':'
asbag61
(g82
g63
NtRp1621
(dp1622
g66
(dp1623
sg75
g1608
sg68
(lp1624
g61
(g62
g63
NtRp1625
(dp1626
g66
(dp1627
g74
I4
ssg75
g1621
sg68
(lp1628
g61
(g70
g63
NtRp1629
(dp1630
g66
(dp1631
g74
I3
ssg75
Nsg68
(lp1632
g61
(g77
g63
NtRp1633
(dp1634
g66
(dp1635
sg75
g1629
sg68
(lp1636
g61
(g82
g63
NtRp1637
(dp1638
g66
(dp1639
g86
g87
ssg75
g1633
sg68
(lp1640
S'CONTENT_LENGTH'
p1641
asbag61
(g82
g63
NtRp1642
(dp1643
g66
(dp1644
g93
g94
ssg75
g1633
sg68
(lp1645
S':'
asbag61
(g82
g63
NtRp1646
(dp1647
g66
(dp1648
sg75
g1633
sg68
(lp1649
g61
(g62
g63
NtRp1650
(dp1651
g66
(dp1652
g74
I3
ssg75
g1646
sg68
(lp1653
S''
asbasbasbag61
(g77
g63
NtRp1654
(dp1655
g66
(dp1656
sg75
g1629
sg68
(lp1657
g61
(g82
g63
NtRp1658
(dp1659
g66
(dp1660
g86
g87
ssg75
g1654
sg68
(lp1661
S'CONTENT_TYPE'
p1662
asbag61
(g82
g63
NtRp1663
(dp1664
g66
(dp1665
g93
g94
ssg75
g1654
sg68
(lp1666
S':'
asbag61
(g82
g63
NtRp1667
(dp1668
g66
(dp1669
sg75
g1654
sg68
(lp1670
g61
(g62
g63
NtRp1671
(dp1672
g66
(dp1673
g74
I3
ssg75
g1667
sg68
(lp1674
S''
asbasbasbag61
(g77
g63
NtRp1675
(dp1676
g66
(dp1677
sg75
g1629
sg68
(lp1678
g61
(g82
g63
NtRp1679
(dp1680
g66
(dp1681
g86
g87
ssg75
g1675
sg68
(lp1682
S'DOCUMENT_ROOT'
p1683
asbag61
(g82
g63
NtRp1684
(dp1685
g66
(dp1686
g93
g94
ssg75
g1675
sg68
(lp1687
S':'
asbag61
(g82
g63
NtRp1688
(dp1689
g66
(dp1690
sg75
g1675
sg68
(lp1691
g61
(g62
g63
NtRp1692
(dp1693
g66
(dp1694
g74
I3
ssg75
g1688
sg68
(lp1695
g610
asbasbasbag61
(g77
g63
NtRp1696
(dp1697
g66
(dp1698
sg75
g1629
sg68
(lp1699
g61
(g82
g63
NtRp1700
(dp1701
g66
(dp1702
g86
g87
ssg75
g1696
sg68
(lp1703
S'HTTP_ACCEPT'
p1704
asbag61
(g82
g63
NtRp1705
(dp1706
g66
(dp1707
g93
g94
ssg75
g1696
sg68
(lp1708
S':'
asbag61
(g82
g63
NtRp1709
(dp1710
g66
(dp1711
sg75
g1696
sg68
(lp1712
g61
(g62
g63
NtRp1713
(dp1714
g66
(dp1715
g74
I3
ssg75
g1709
sg68
(lp1716
g653
asbasbasbag61
(g77
g63
NtRp1717
(dp1718
g66
(dp1719
sg75
g1629
sg68
(lp1720
g61
(g82
g63
NtRp1721
(dp1722
g66
(dp1723
g86
g87
ssg75
g1717
sg68
(lp1724
S'HTTP_ACCEPT_CHARSET'
p1725
asbag61
(g82
g63
NtRp1726
(dp1727
g66
(dp1728
g93
g94
ssg75
g1717
sg68
(lp1729
S':'
asbag61
(g82
g63
NtRp1730
(dp1731
g66
(dp1732
sg75
g1717
sg68
(lp1733
g61
(g62
g63
NtRp1734
(dp1735
g66
(dp1736
g74
I3
ssg75
g1730
sg68
(lp1737
g675
asbasbasbag61
(g77
g63
NtRp1738
(dp1739
g66
(dp1740
sg75
g1629
sg68
(lp1741
g61
(g82
g63
NtRp1742
(dp1743
g66
(dp1744
g86
g87
ssg75
g1738
sg68
(lp1745
S'HTTP_ACCEPT_ENCODING'
p1746
asbag61
(g82
g63
NtRp1747
(dp1748
g66
(dp1749
g93
g94
ssg75
g1738
sg68
(lp1750
S':'
asbag61
(g82
g63
NtRp1751
(dp1752
g66
(dp1753
sg75
g1738
sg68
(lp1754
g61
(g62
g63
NtRp1755
(dp1756
g66
(dp1757
g74
I3
ssg75
g1751
sg68
(lp1758
g697
asbasbasbag61
(g77
g63
NtRp1759
(dp1760
g66
(dp1761
sg75
g1629
sg68
(lp1762
g61
(g82
g63
NtRp1763
(dp1764
g66
(dp1765
g86
g87
ssg75
g1759
sg68
(lp1766
S'HTTP_ACCEPT_LANGUAGE'
p1767
asbag61
(g82
g63
NtRp1768
(dp1769
g66
(dp1770
g93
g94
ssg75
g1759
sg68
(lp1771
S':'
asbag61
(g82
g63
NtRp1772
(dp1773
g66
(dp1774
sg75
g1759
sg68
(lp1775
g61
(g62
g63
NtRp1776
(dp1777
g66
(dp1778
g74
I3
ssg75
g1772
sg68
(lp1779
g719
asbasbasbag61
(g77
g63
NtRp1780
(dp1781
g66
(dp1782
sg75
g1629
sg68
(lp1783
g61
(g82
g63
NtRp1784
(dp1785
g66
(dp1786
g86
g87
ssg75
g1780
sg68
(lp1787
S'HTTP_CONNECTION'
p1788
asbag61
(g82
g63
NtRp1789
(dp1790
g66
(dp1791
g93
g94
ssg75
g1780
sg68
(lp1792
S':'
asbag61
(g82
g63
NtRp1793
(dp1794
g66
(dp1795
sg75
g1780
sg68
(lp1796
g61
(g62
g63
NtRp1797
(dp1798
g66
(dp1799
g74
I3
ssg75
g1793
sg68
(lp1800
g741
asbasbasbag61
(g77
g63
NtRp1801
(dp1802
g66
(dp1803
sg75
g1629
sg68
(lp1804
g61
(g82
g63
NtRp1805
(dp1806
g66
(dp1807
g86
g87
ssg75
g1801
sg68
(lp1808
S'HTTP_COOKIE'
p1809
asbag61
(g82
g63
NtRp1810
(dp1811
g66
(dp1812
g93
g94
ssg75
g1801
sg68
(lp1813
S':'
asbag61
(g82
g63
NtRp1814
(dp1815
g66
(dp1816
sg75
g1801
sg68
(lp1817
g61
(g62
g63
NtRp1818
(dp1819
g66
(dp1820
g74
I3
ssg75
g1814
sg68
(lp1821
g763
asbasbasbag61
(g77
g63
NtRp1822
(dp1823
g66
(dp1824
sg75
g1629
sg68
(lp1825
g61
(g82
g63
NtRp1826
(dp1827
g66
(dp1828
g86
g87
ssg75
g1822
sg68
(lp1829
S'HTTP_HOST'
p1830
asbag61
(g82
g63
NtRp1831
(dp1832
g66
(dp1833
g93
g94
ssg75
g1822
sg68
(lp1834
S':'
asbag61
(g82
g63
NtRp1835
(dp1836
g66
(dp1837
sg75
g1822
sg68
(lp1838
g61
(g62
g63
NtRp1839
(dp1840
g66
(dp1841
g74
I3
ssg75
g1835
sg68
(lp1842
g785
asbasbasbag61
(g77
g63
NtRp1843
(dp1844
g66
(dp1845
sg75
g1629
sg68
(lp1846
g61
(g82
g63
NtRp1847
(dp1848
g66
(dp1849
g86
g87
ssg75
g1843
sg68
(lp1850
S'HTTP_KEEP_ALIVE'
p1851
asbag61
(g82
g63
NtRp1852
(dp1853
g66
(dp1854
g93
g94
ssg75
g1843
sg68
(lp1855
S':'
asbag61
(g82
g63
NtRp1856
(dp1857
g66
(dp1858
sg75
g1843
sg68
(lp1859
g61
(g62
g63
NtRp1860
(dp1861
g66
(dp1862
g74
I3
ssg75
g1856
sg68
(lp1863
g807
asbasbasbag61
(g77
g63
NtRp1864
(dp1865
g66
(dp1866
sg75
g1629
sg68
(lp1867
g61
(g82
g63
NtRp1868
(dp1869
g66
(dp1870
g86
g87
ssg75
g1864
sg68
(lp1871
S'HTTP_USER_AGENT'
p1872
asbag61
(g82
g63
NtRp1873
(dp1874
g66
(dp1875
g93
g94
ssg75
g1864
sg68
(lp1876
S':'
asbag61
(g82
g63
NtRp1877
(dp1878
g66
(dp1879
sg75
g1864
sg68
(lp1880
g61
(g62
g63
NtRp1881
(dp1882
g66
(dp1883
g74
I3
ssg75
g1877
sg68
(lp1884
g829
asbasbasbag61
(g77
g63
NtRp1885
(dp1886
g66
(dp1887
sg75
g1629
sg68
(lp1888
g61
(g82
g63
NtRp1889
(dp1890
g66
(dp1891
g86
g87
ssg75
g1885
sg68
(lp1892
S'PATH_INFO'
p1893
asbag61
(g82
g63
NtRp1894
(dp1895
g66
(dp1896
g93
g94
ssg75
g1885
sg68
(lp1897
S':'
asbag61
(g82
g63
NtRp1898
(dp1899
g66
(dp1900
sg75
g1885
sg68
(lp1901
g61
(g62
g63
NtRp1902
(dp1903
g66
(dp1904
g74
I3
ssg75
g1898
sg68
(lp1905
g851
asbasbasbag61
(g77
g63
NtRp1906
(dp1907
g66
(dp1908
sg75
g1629
sg68
(lp1909
g61
(g82
g63
NtRp1910
(dp1911
g66
(dp1912
g86
g87
ssg75
g1906
sg68
(lp1913
S'QUERY_STRING'
p1914
asbag61
(g82
g63
NtRp1915
(dp1916
g66
(dp1917
g93
g94
ssg75
g1906
sg68
(lp1918
S':'
asbag61
(g82
g63
NtRp1919
(dp1920
g66
(dp1921
sg75
g1906
sg68
(lp1922
g61
(g62
g63
NtRp1923
(dp1924
g66
(dp1925
g74
I3
ssg75
g1919
sg68
(lp1926
S''
asbasbasbag61
(g77
g63
NtRp1927
(dp1928
g66
(dp1929
sg75
g1629
sg68
(lp1930
g61
(g82
g63
NtRp1931
(dp1932
g66
(dp1933
g86
g87
ssg75
g1927
sg68
(lp1934
S'REMOTE_ADDR'
p1935
asbag61
(g82
g63
NtRp1936
(dp1937
g66
(dp1938
g93
g94
ssg75
g1927
sg68
(lp1939
S':'
asbag61
(g82
g63
NtRp1940
(dp1941
g66
(dp1942
sg75
g1927
sg68
(lp1943
g61
(g62
g63
NtRp1944
(dp1945
g66
(dp1946
g74
I3
ssg75
g1940
sg68
(lp1947
g194
asbasbasbag61
(g77
g63
NtRp1948
(dp1949
g66
(dp1950
sg75
g1629
sg68
(lp1951
g61
(g82
g63
NtRp1952
(dp1953
g66
(dp1954
g86
g87
ssg75
g1948
sg68
(lp1955
S'REMOTE_PORT'
p1956
asbag61
(g82
g63
NtRp1957
(dp1958
g66
(dp1959
g93
g94
ssg75
g1948
sg68
(lp1960
S':'
asbag61
(g82
g63
NtRp1961
(dp1962
g66
(dp1963
sg75
g1948
sg68
(lp1964
g61
(g62
g63
NtRp1965
(dp1966
g66
(dp1967
g74
I3
ssg75
g1961
sg68
(lp1968
g915
asbasbasbag61
(g77
g63
NtRp1969
(dp1970
g66
(dp1971
sg75
g1629
sg68
(lp1972
g61
(g82
g63
NtRp1973
(dp1974
g66
(dp1975
g86
g87
ssg75
g1969
sg68
(lp1976
S'REQUEST_METHOD'
p1977
asbag61
(g82
g63
NtRp1978
(dp1979
g66
(dp1980
g93
g94
ssg75
g1969
sg68
(lp1981
S':'
asbag61
(g82
g63
NtRp1982
(dp1983
g66
(dp1984
sg75
g1969
sg68
(lp1985
g61
(g62
g63
NtRp1986
(dp1987
g66
(dp1988
g74
I3
ssg75
g1982
sg68
(lp1989
g937
asbasbasbag61
(g77
g63
NtRp1990
(dp1991
g66
(dp1992
sg75
g1629
sg68
(lp1993
g61
(g82
g63
NtRp1994
(dp1995
g66
(dp1996
g86
g87
ssg75
g1990
sg68
(lp1997
S'REQUEST_URI'
p1998
asbag61
(g82
g63
NtRp1999
(dp2000
g66
(dp2001
g93
g94
ssg75
g1990
sg68
(lp2002
S':'
asbag61
(g82
g63
NtRp2003
(dp2004
g66
(dp2005
sg75
g1990
sg68
(lp2006
g61
(g62
g63
NtRp2007
(dp2008
g66
(dp2009
g74
I3
ssg75
g2003
sg68
(lp2010
g959
asbasbasbag61
(g77
g63
NtRp2011
(dp2012
g66
(dp2013
sg75
g1629
sg68
(lp2014
g61
(g82
g63
NtRp2015
(dp2016
g66
(dp2017
g86
g87
ssg75
g2011
sg68
(lp2018
S'SERVER_NAME'
p2019
asbag61
(g82
g63
NtRp2020
(dp2021
g66
(dp2022
g93
g94
ssg75
g2011
sg68
(lp2023
S':'
asbag61
(g82
g63
NtRp2024
(dp2025
g66
(dp2026
sg75
g2011
sg68
(lp2027
g61
(g62
g63
NtRp2028
(dp2029
g66
(dp2030
g74
I3
ssg75
g2024
sg68
(lp2031
g981
asbasbasbag61
(g77
g63
NtRp2032
(dp2033
g66
(dp2034
sg75
g1629
sg68
(lp2035
g61
(g82
g63
NtRp2036
(dp2037
g66
(dp2038
g86
g87
ssg75
g2032
sg68
(lp2039
S'SERVER_PORT'
p2040
asbag61
(g82
g63
NtRp2041
(dp2042
g66
(dp2043
g93
g94
ssg75
g2032
sg68
(lp2044
S':'
asbag61
(g82
g63
NtRp2045
(dp2046
g66
(dp2047
sg75
g2032
sg68
(lp2048
g61
(g62
g63
NtRp2049
(dp2050
g66
(dp2051
g74
I3
ssg75
g2045
sg68
(lp2052
g1003
asbasbasbag61
(g77
g63
NtRp2053
(dp2054
g66
(dp2055
sg75
g1629
sg68
(lp2056
g61
(g82
g63
NtRp2057
(dp2058
g66
(dp2059
g86
g87
ssg75
g2053
sg68
(lp2060
S'SERVER_PROTOCOL'
p2061
asbag61
(g82
g63
NtRp2062
(dp2063
g66
(dp2064
g93
g94
ssg75
g2053
sg68
(lp2065
S':'
asbag61
(g82
g63
NtRp2066
(dp2067
g66
(dp2068
sg75
g2053
sg68
(lp2069
g61
(g62
g63
NtRp2070
(dp2071
g66
(dp2072
g74
I3
ssg75
g2066
sg68
(lp2073
g1025
asbasbasbag61
(g77
g63
NtRp2074
(dp2075
g66
(dp2076
sg75
g1629
sg68
(lp2077
g61
(g82
g63
NtRp2078
(dp2079
g66
(dp2080
g86
g87
ssg75
g2074
sg68
(lp2081
S'UWSGI_SCHEME'
p2082
asbag61
(g82
g63
NtRp2083
(dp2084
g66
(dp2085
g93
g94
ssg75
g2074
sg68
(lp2086
S':'
asbag61
(g82
g63
NtRp2087
(dp2088
g66
(dp2089
sg75
g2074
sg68
(lp2090
g61
(g62
g63
NtRp2091
(dp2092
g66
(dp2093
g74
I3
ssg75
g2087
sg68
(lp2094
g1047
asbasbasbag61
(g77
g63
NtRp2095
(dp2096
g66
(dp2097
sg75
g1629
sg68
(lp2098
g61
(g82
g63
NtRp2099
(dp2100
g66
(dp2101
g86
g87
ssg75
g2095
sg68
(lp2102
S'uwsgi.version'
p2103
asbag61
(g82
g63
NtRp2104
(dp2105
g66
(dp2106
g93
g94
ssg75
g2095
sg68
(lp2107
S':'
asbag61
(g82
g63
NtRp2108
(dp2109
g66
(dp2110
sg75
g2095
sg68
(lp2111
g61
(g62
g63
NtRp2112
(dp2113
g66
(dp2114
g74
I3
ssg75
g2108
sg68
(lp2115
g1069
asbasbasbag61
(g77
g63
NtRp2116
(dp2117
g66
(dp2118
sg75
g1629
sg68
(lp2119
g61
(g82
g63
NtRp2120
(dp2121
g66
(dp2122
g86
g87
ssg75
g2116
sg68
(lp2123
S'wsgi.errors'
p2124
asbag61
(g82
g63
NtRp2125
(dp2126
g66
(dp2127
g93
g94
ssg75
g2116
sg68
(lp2128
S':'
asbag61
(g82
g63
NtRp2129
(dp2130
g66
(dp2131
sg75
g2116
sg68
(lp2132
g61
(g62
g63
NtRp2133
(dp2134
g66
(dp2135
g74
I3
ssg75
g2129
sg68
(lp2136
S"<open file 'wsgi_input', mode 'w' at 0x8981910>"
p2137
asbasbasbag61
(g77
g63
NtRp2138
(dp2139
g66
(dp2140
sg75
g1629
sg68
(lp2141
g61
(g82
g63
NtRp2142
(dp2143
g66
(dp2144
g86
g87
ssg75
g2138
sg68
(lp2145
S'wsgi.file_wrapper'
p2146
asbag61
(g82
g63
NtRp2147
(dp2148
g66
(dp2149
g93
g94
ssg75
g2138
sg68
(lp2150
S':'
asbag61
(g82
g63
NtRp2151
(dp2152
g66
(dp2153
sg75
g2138
sg68
(lp2154
g61
(g62
g63
NtRp2155
(dp2156
g66
(dp2157
g74
I3
ssg75
g2151
sg68
(lp2158
S'<built-in function uwsgi_sendfile>'
p2159
asbasbasbag61
(g77
g63
NtRp2160
(dp2161
g66
(dp2162
sg75
g1629
sg68
(lp2163
g61
(g82
g63
NtRp2164
(dp2165
g66
(dp2166
g86
g87
ssg75
g2160
sg68
(lp2167
S'wsgi.input'
p2168
asbag61
(g82
g63
NtRp2169
(dp2170
g66
(dp2171
g93
g94
ssg75
g2160
sg68
(lp2172
S':'
asbag61
(g82
g63
NtRp2173
(dp2174
g66
(dp2175
sg75
g2160
sg68
(lp2176
g61
(g62
g63
NtRp2177
(dp2178
g66
(dp2179
g74
I3
ssg75
g2173
sg68
(lp2180
S'<cStringIO.StringO object at 0x89a17a0>'
p2181
asbasbasbag61
(g77
g63
NtRp2182
(dp2183
g66
(dp2184
sg75
g1629
sg68
(lp2185
g61
(g82
g63
NtRp2186
(dp2187
g66
(dp2188
g86
g87
ssg75
g2182
sg68
(lp2189
S'wsgi.multiprocess'
p2190
asbag61
(g82
g63
NtRp2191
(dp2192
g66
(dp2193
g93
g94
ssg75
g2182
sg68
(lp2194
S':'
asbag61
(g82
g63
NtRp2195
(dp2196
g66
(dp2197
sg75
g2182
sg68
(lp2198
g61
(g62
g63
NtRp2199
(dp2200
g66
(dp2201
g74
I3
ssg75
g2195
sg68
(lp2202
g104
asbasbasbag61
(g77
g63
NtRp2203
(dp2204
g66
(dp2205
sg75
g1629
sg68
(lp2206
g61
(g82
g63
NtRp2207
(dp2208
g66
(dp2209
g86
g87
ssg75
g2203
sg68
(lp2210
S'wsgi.multithread'
p2211
asbag61
(g82
g63
NtRp2212
(dp2213
g66
(dp2214
g93
g94
ssg75
g2203
sg68
(lp2215
S':'
asbag61
(g82
g63
NtRp2216
(dp2217
g66
(dp2218
sg75
g2203
sg68
(lp2219
g61
(g62
g63
NtRp2220
(dp2221
g66
(dp2222
g74
I3
ssg75
g2216
sg68
(lp2223
g104
asbasbasbag61
(g77
g63
NtRp2224
(dp2225
g66
(dp2226
sg75
g1629
sg68
(lp2227
g61
(g82
g63
NtRp2228
(dp2229
g66
(dp2230
g86
g87
ssg75
g2224
sg68
(lp2231
S'wsgi.run_once'
p2232
asbag61
(g82
g63
NtRp2233
(dp2234
g66
(dp2235
g93
g94
ssg75
g2224
sg68
(lp2236
S':'
asbag61
(g82
g63
NtRp2237
(dp2238
g66
(dp2239
sg75
g2224
sg68
(lp2240
g61
(g62
g63
NtRp2241
(dp2242
g66
(dp2243
g74
I3
ssg75
g2237
sg68
(lp2244
g104
asbasbasbag61
(g77
g63
NtRp2245
(dp2246
g66
(dp2247
sg75
g1629
sg68
(lp2248
g61
(g82
g63
NtRp2249
(dp2250
g66
(dp2251
g86
g87
ssg75
g2245
sg68
(lp2252
S'wsgi.url_scheme'
p2253
asbag61
(g82
g63
NtRp2254
(dp2255
g66
(dp2256
g93
g94
ssg75
g2245
sg68
(lp2257
S':'
asbag61
(g82
g63
NtRp2258
(dp2259
g66
(dp2260
sg75
g2245
sg68
(lp2261
g61
(g62
g63
NtRp2262
(dp2263
g66
(dp2264
g74
I3
ssg75
g2258
sg68
(lp2265
g1263
asbasbasbag61
(g77
g63
NtRp2266
(dp2267
g66
(dp2268
sg75
g1629
sg68
(lp2269
g61
(g82
g63
NtRp2270
(dp2271
g66
(dp2272
g86
g87
ssg75
g2266
sg68
(lp2273
S'wsgi.version'
p2274
asbag61
(g82
g63
NtRp2275
(dp2276
g66
(dp2277
g93
g94
ssg75
g2266
sg68
(lp2278
S':'
asbag61
(g82
g63
NtRp2279
(dp2280
g66
(dp2281
sg75
g2266
sg68
(lp2282
g61
(g62
g63
NtRp2283
(dp2284
g66
(dp2285
g74
I3
ssg75
g2279
sg68
(lp2286
S'1'
asbasbasbasbasbasbasbasbasbasbasbasbasbsS'frames'
p2287
(lp2288
(dp2289
S'file'
p2290
S'/home/arvin/web2py/gluon/main.py'
p2291
sS'dump'
p2292
(dp2293
S'global serve_controller'
p2294
S'<function serve_controller>'
p2295
sS'session'
p2296
S"<Storage {'_Session__hash': '\\xc8[\\xd5\\xc1#\\xd8e\\x10\\xe3\\x06\\x0ba\\xddT\\x92m'}>"
p2297
sS'request'
p2298
S"<Storage {'is_local': False, 'function': 'index'....13-34-20.625d64fb-7198-40c6-b124-fdc4877c0df1'}>"
p2299
sS'response'
p2300
S"<Storage {'status': 200, 'body': <cStringIO.Stri...ion_id_name': 'session_id_welcome', 'files': []}>"
p2301
ssS'lnum'
p2302
I485
sS'lines'
p2303
(dp2304
I480
S''
sI481
S'                # ##################################################'
p2305
sI482
S'                # run controller'
p2306
sI483
S'                # ##################################################'
p2307
sI484
S''
sI485
S'                serve_controller(request, response, session)'
p2308
sI486
S''
sI487
S'            except HTTP, http_response:'
p2309
sI488
S'                if static_file:'
p2310
sI489
S'                    return http_response.to(responder)'
p2311
ssS'call'
p2312
S"(environ={'CONTENT_LENGTH': '', 'CONTENT_TYPE': '', 'DOCUMENT_ROOT': '/usr/local/nginx/html', 'HTTP_ACCEPT': 'text/html,application/xhtml+xml,application/xml;q=0.9,*/*;q=0.8', 'HTTP_ACCEPT_CHARSET': 'ISO-8859-1,utf-8;q=0.7,*;q=0.7', 'HTTP_ACCEPT_ENCODING': 'gzip, deflate', 'HTTP_ACCEPT_LANGUAGE': 'en-us,en;q=0.5', 'HTTP_CONNECTION': 'keep-alive', 'HTTP_COOKIE': '__utma=159863860.1937463137.1307715134.130858625...186.32.48.60-302c03b0-d800-439d-9ea0-600a4ab492a9', 'HTTP_HOST': 'a.xchg.com', ...}, responder=<built-in function uwsgi_spit>)"
p2313
sS'func'
p2314
S'wsgibase'
p2315
sa(dp2316
g2290
S'/home/arvin/web2py/gluon/main.py'
p2317
sg2292
(dp2318
S'environment'
p2319
S'undefined'
p2320
sS'session'
p2321
S"<Storage {'_Session__hash': '\\xc8[\\xd5\\xc1#\\xd8e\\x10\\xe3\\x06\\x0ba\\xddT\\x92m'}>"
p2322
sS'request'
p2323
S"<Storage {'is_local': False, 'function': 'index'....13-34-20.625d64fb-7198-40c6-b124-fdc4877c0df1'}>"
p2324
sS'response'
p2325
S"<Storage {'status': 200, 'body': <cStringIO.Stri...ion_id_name': 'session_id_welcome', 'files': []}>"
p2326
sS'global build_environment'
p2327
S'<function build_environment>'
p2328
ssg2302
I188
sg2303
(dp2329
I192
S"    response.view = '%s/%s.%s' % (request.controller,"
p2330
sI183
S''
sI184
S'    # ##################################################'
p2331
sI185
S'    # build environment for controller and view'
p2332
sI186
S'    # ##################################################'
p2333
sI187
S''
sI188
S'    environment = build_environment(request, response, session)'
p2334
sI189
S''
sI190
S'    # set default view, controller can override it'
p2335
sI191
S''
ssg2312
S"(request=<Storage {'is_local': False, 'function': 'index'....13-34-20.625d64fb-7198-40c6-b124-fdc4877c0df1'}>, response=<Storage {'status': 200, 'body': <cStringIO.Stri...ion_id_name': 'session_id_welcome', 'files': []}>, session=<Storage {'_Session__hash': '\\xc8[\\xd5\\xc1#\\xd8e\\x10\\xe3\\x06\\x0ba\\xddT\\x92m'}>)"
p2336
sg2314
S'serve_controller'
p2337
sa(dp2338
g2290
S'/home/arvin/web2py/gluon/compileapp.py'
p2339
sg2292
(dp2340
S'global current'
p2341
S'<thread._local object>'
p2342
sS'environment'
p2343
S"{'A': <class 'gluon.html.A'>, 'B': <class 'gluon.html.B'>, 'BEAUTIFY': <class 'gluon.html.BEAUTIFY'>, 'BODY': <class 'gluon.html.BODY'>, 'BR': <class 'gluon.html.BR'>, 'BUTTON': <class 'gluon.html.BUTTON'>, 'CENTER': <class 'gluon.html.CENTER'>, 'CLEANUP': <class 'gluon.validators.CLEANUP'>, 'CODE': <class 'gluon.html.CODE'>, 'CRYPT': <class 'gluon.validators.CRYPT'>, ...}"
p2344
sS'global Cache'
p2345
S"<class 'gluon.cache.Cache'>"
p2346
sS'request'
p2347
S"<Storage {'is_local': False, 'function': 'index'....13-34-20.625d64fb-7198-40c6-b124-fdc4877c0df1'}>"
p2348
sS'current.cache'
p2349
g2320
ssg2302
I233
sg2303
(dp2350
I228
S''
sI229
S'    current.request = request'
p2351
sI230
S'    current.response = response'
p2352
sI231
S'    current.session = session'
p2353
sI232
S"    current.T = environment['T'] = translator(request)"
p2354
sI233
S"    current.cache = environment['cache'] = Cache(request)"
p2355
sI234
S''
sI235
S"    __builtins__['__import__'] = __builtin__.__import__"
p2356
sI236
S"    environment['__builtins__'] = __builtins__"
p2357
sI237
S"    environment['HTTP'] = HTTP"
p2358
ssg2312
S"(request=<Storage {'is_local': False, 'function': 'index'....13-34-20.625d64fb-7198-40c6-b124-fdc4877c0df1'}>, response=<Storage {'status': 200, 'body': <cStringIO.Stri...ion_id_name': 'session_id_welcome', 'files': []}>, session=<Storage {'_Session__hash': '\\xc8[\\xd5\\xc1#\\xd8e\\x10\\xe3\\x06\\x0ba\\xddT\\x92m'}>)"
p2359
sg2314
S'build_environment'
p2360
sa(dp2361
g2290
S'/home/arvin/web2py/gluon/cache.py'
p2362
sg2292
(dp2363
S'self'
p2364
S'<gluon.cache.Cache object>'
p2365
sS'request'
p2366
S"<Storage {'is_local': False, 'function': 'index'....13-34-20.625d64fb-7198-40c6-b124-fdc4877c0df1'}>"
p2367
sS'self.disk'
p2368
g2320
sS'global CacheOnDisk'
p2369
S"<class 'gluon.cache.CacheOnDisk'>"
p2370
ssg2302
I376
sg2303
(dp2371
I371
S'            self.ram=self.disk=MemcacheClient(request)'
p2372
sI372
S'        else:'
p2373
sI373
S'            # Otherwise use ram (and try also disk)'
p2374
sI374
S'            self.ram = CacheInRam(request)'
p2375
sI375
S'            try:'
p2376
sI376
S'                self.disk = CacheOnDisk(request)'
p2377
sI377
S'            except IOError:'
p2378
sI378
S"                logger.warning('no cache.disk (IOError)')"
p2379
sI379
S'            except AttributeError:'
p2380
sI380
S'                # normally not expected anymore, as GAE has already'
p2381
ssg2312
S"(self=<gluon.cache.Cache object>, request=<Storage {'is_local': False, 'function': 'index'....13-34-20.625d64fb-7198-40c6-b124-fdc4877c0df1'}>)"
p2382
sg2314
g20
sa(dp2383
g2290
S'/home/arvin/web2py/gluon/cache.py'
p2384
sg2292
(dp2385
S'os.unlink'
p2386
S'<built-in function unlink>'
p2387
sS'self.shelve_name'
p2388
S"'/home/arvin/web2py/applications/welcome/cache/cache.shelve'"
p2389
sS'self'
p2390
S'<gluon.cache.CacheOnDisk object>'
p2391
sS'global os'
p2392
S"<module 'os' from '/usr/lib/python2.7/os.pyc'>"
p2393
ssg2302
I261
sg2303
(dp2394
I256
S'                pass # no module _bsddb, ignoring exception now so it makes a ticket only if used'
p2395
sI257
S'            except:'
p2396
sI258
S"                logger.error('corrupted file %s, will try delete it!' \\"
p2397
sI259
S'                                 % self.shelve_name)'
p2398
sI260
S'                try:'
p2399
sI261
S'                    os.unlink(self.shelve_name)'
p2400
sI262
S'                except IOError:'
p2401
sI263
S"                    logger.warn('unable to delete file %s' % self.shelve_name)"
p2402
sI264
S'            if locker_locked:'
p2403
sI265
S'                portalocker.unlock(locker)'
p2404
ssg2312
S"(self=<gluon.cache.CacheOnDisk object>, request=<Storage {'is_local': False, 'function': 'index'....13-34-20.625d64fb-7198-40c6-b124-fdc4877c0df1'}>, folder='/home/arvin/web2py/applications/welcome/cache')"
p2405
sg2314
g20
sasS'pyver'
p2406
S'Python 2.7.1+: '
p2407
sS'session'
p2408
g61
(g62
g63
NtRp2409
(dp2410
g66
(dp2411
sg68
(lp2412
g61
(g70
g63
NtRp2413
(dp2414
g66
(dp2415
g74
I5
ssg75
Nsg68
(lp2416
sbasbsS'etype'
p2417
S"<type 'exceptions.OSError'>"
p2418
sS'date'
p2419
S'Tue Jun 21 13:34:20 2011'
p2420
sS'response'
p2421
g61
(g62
g63
NtRp2422
(dp2423
g66
(dp2424
sg68
(lp2425
g61
(g70
g63
NtRp2426
(dp2427
g66
(dp2428
g74
I5
ssg75
Nsg68
(lp2429
g61
(g77
g63
NtRp2430
(dp2431
g66
(dp2432
sg75
g2426
sg68
(lp2433
g61
(g82
g63
NtRp2434
(dp2435
g66
(dp2436
g86
g87
ssg75
g2430
sg68
(lp2437
g159
asbag61
(g82
g63
NtRp2438
(dp2439
g66
(dp2440
g93
g94
ssg75
g2430
sg68
(lp2441
S':'
asbag61
(g82
g63
NtRp2442
(dp2443
g66
(dp2444
sg75
g2430
sg68
(lp2445
g61
(g62
g63
NtRp2446
(dp2447
g66
(dp2448
g74
I5
ssg75
g2442
sg68
(lp2449
S'<cStringIO.StringO object at 0x8880560>'
p2450
asbasbasbag61
(g77
g63
NtRp2451
(dp2452
g66
(dp2453
sg75
g2426
sg68
(lp2454
g61
(g82
g63
NtRp2455
(dp2456
g66
(dp2457
g86
g87
ssg75
g2451
sg68
(lp2458
g225
asbag61
(g82
g63
NtRp2459
(dp2460
g66
(dp2461
g93
g94
ssg75
g2451
sg68
(lp2462
S':'
asbag61
(g82
g63
NtRp2463
(dp2464
g66
(dp2465
sg75
g2451
sg68
(lp2466
g61
(g62
g63
NtRp2467
(dp2468
g66
(dp2469
g74
I5
ssg75
g2463
sg68
(lp2470
g61
(g70
g63
NtRp2471
(dp2472
g66
(dp2473
g74
I4
ssg75
Nsg68
(lp2474
g61
(g77
g63
NtRp2475
(dp2476
g66
(dp2477
sg75
g2471
sg68
(lp2478
g61
(g82
g63
NtRp2479
(dp2480
g66
(dp2481
g86
g87
ssg75
g2475
sg68
(lp2482
S'session_id_welcome'
p2483
asbag61
(g82
g63
NtRp2484
(dp2485
g66
(dp2486
g93
g94
ssg75
g2475
sg68
(lp2487
S':'
asbag61
(g82
g63
NtRp2488
(dp2489
g66
(dp2490
sg75
g2475
sg68
(lp2491
g61
(g62
g63
NtRp2492
(dp2493
g66
(dp2494
g74
I4
ssg75
g2488
sg68
(lp2495
g61
(g70
g63
NtRp2496
(dp2497
g66
(dp2498
g74
I3
ssg75
Nsg68
(lp2499
g61
(g77
g63
NtRp2500
(dp2501
g66
(dp2502
sg75
g2496
sg68
(lp2503
g61
(g82
g63
NtRp2504
(dp2505
g66
(dp2506
g86
g87
ssg75
g2500
sg68
(lp2507
g275
asbag61
(g82
g63
NtRp2508
(dp2509
g66
(dp2510
g93
g94
ssg75
g2500
sg68
(lp2511
S':'
asbag61
(g82
g63
NtRp2512
(dp2513
g66
(dp2514
sg75
g2500
sg68
(lp2515
g61
(g62
g63
NtRp2516
(dp2517
g66
(dp2518
g74
I3
ssg75
g2512
sg68
(lp2519
S''
asbasbasbag61
(g77
g63
NtRp2520
(dp2521
g66
(dp2522
sg75
g2496
sg68
(lp2523
g61
(g82
g63
NtRp2524
(dp2525
g66
(dp2526
g86
g87
ssg75
g2520
sg68
(lp2527
g296
asbag61
(g82
g63
NtRp2528
(dp2529
g66
(dp2530
g93
g94
ssg75
g2520
sg68
(lp2531
S':'
asbag61
(g82
g63
NtRp2532
(dp2533
g66
(dp2534
sg75
g2520
sg68
(lp2535
g61
(g62
g63
NtRp2536
(dp2537
g66
(dp2538
g74
I3
ssg75
g2532
sg68
(lp2539
S''
asbasbasbag61
(g77
g63
NtRp2540
(dp2541
g66
(dp2542
sg75
g2496
sg68
(lp2543
g61
(g82
g63
NtRp2544
(dp2545
g66
(dp2546
g86
g87
ssg75
g2540
sg68
(lp2547
g317
asbag61
(g82
g63
NtRp2548
(dp2549
g66
(dp2550
g93
g94
ssg75
g2540
sg68
(lp2551
S':'
asbag61
(g82
g63
NtRp2552
(dp2553
g66
(dp2554
sg75
g2540
sg68
(lp2555
g61
(g62
g63
NtRp2556
(dp2557
g66
(dp2558
g74
I3
ssg75
g2552
sg68
(lp2559
S''
asbasbasbag61
(g77
g63
NtRp2560
(dp2561
g66
(dp2562
sg75
g2496
sg68
(lp2563
g61
(g82
g63
NtRp2564
(dp2565
g66
(dp2566
g86
g87
ssg75
g2560
sg68
(lp2567
g338
asbag61
(g82
g63
NtRp2568
(dp2569
g66
(dp2570
g93
g94
ssg75
g2560
sg68
(lp2571
S':'
asbag61
(g82
g63
NtRp2572
(dp2573
g66
(dp2574
sg75
g2560
sg68
(lp2575
g61
(g62
g63
NtRp2576
(dp2577
g66
(dp2578
g74
I3
ssg75
g2572
sg68
(lp2579
S''
asbasbasbag61
(g77
g63
NtRp2580
(dp2581
g66
(dp2582
sg75
g2496
sg68
(lp2583
g61
(g82
g63
NtRp2584
(dp2585
g66
(dp2586
g86
g87
ssg75
g2580
sg68
(lp2587
g359
asbag61
(g82
g63
NtRp2588
(dp2589
g66
(dp2590
g93
g94
ssg75
g2580
sg68
(lp2591
S':'
asbag61
(g82
g63
NtRp2592
(dp2593
g66
(dp2594
sg75
g2580
sg68
(lp2595
g61
(g62
g63
NtRp2596
(dp2597
g66
(dp2598
g74
I3
ssg75
g2592
sg68
(lp2599
S''
asbasbasbag61
(g77
g63
NtRp2600
(dp2601
g66
(dp2602
sg75
g2496
sg68
(lp2603
g61
(g82
g63
NtRp2604
(dp2605
g66
(dp2606
g86
g87
ssg75
g2600
sg68
(lp2607
g380
asbag61
(g82
g63
NtRp2608
(dp2609
g66
(dp2610
g93
g94
ssg75
g2600
sg68
(lp2611
S':'
asbag61
(g82
g63
NtRp2612
(dp2613
g66
(dp2614
sg75
g2600
sg68
(lp2615
g61
(g62
g63
NtRp2616
(dp2617
g66
(dp2618
g74
I3
ssg75
g2612
sg68
(lp2619
S'/'
asbasbasbag61
(g77
g63
NtRp2620
(dp2621
g66
(dp2622
sg75
g2496
sg68
(lp2623
g61
(g82
g63
NtRp2624
(dp2625
g66
(dp2626
g86
g87
ssg75
g2620
sg68
(lp2627
g401
asbag61
(g82
g63
NtRp2628
(dp2629
g66
(dp2630
g93
g94
ssg75
g2620
sg68
(lp2631
S':'
asbag61
(g82
g63
NtRp2632
(dp2633
g66
(dp2634
sg75
g2620
sg68
(lp2635
g61
(g62
g63
NtRp2636
(dp2637
g66
(dp2638
g74
I3
ssg75
g2632
sg68
(lp2639
S''
asbasbasbag61
(g77
g63
NtRp2640
(dp2641
g66
(dp2642
sg75
g2496
sg68
(lp2643
g61
(g82
g63
NtRp2644
(dp2645
g66
(dp2646
g86
g87
ssg75
g2640
sg68
(lp2647
g422
asbag61
(g82
g63
NtRp2648
(dp2649
g66
(dp2650
g93
g94
ssg75
g2640
sg68
(lp2651
S':'
asbag61
(g82
g63
NtRp2652
(dp2653
g66
(dp2654
sg75
g2640
sg68
(lp2655
g61
(g62
g63
NtRp2656
(dp2657
g66
(dp2658
g74
I3
ssg75
g2652
sg68
(lp2659
S''
asbasbasbasbasbasbasbasbasbasbasbag61
(g77
g63
NtRp2660
(dp2661
g66
(dp2662
sg75
g2426
sg68
(lp2663
g61
(g82
g63
NtRp2664
(dp2665
g66
(dp2666
g86
g87
ssg75
g2660
sg68
(lp2667
S'files'
p2668
asbag61
(g82
g63
NtRp2669
(dp2670
g66
(dp2671
g93
g94
ssg75
g2660
sg68
(lp2672
S':'
asbag61
(g82
g63
NtRp2673
(dp2674
g66
(dp2675
sg75
g2660
sg68
(lp2676
g61
(g62
g63
NtRp2677
(dp2678
g66
(dp2679
g74
I5
ssg75
g2673
sg68
(lp2680
g61
(g70
g63
NtRp2681
(dp2682
g66
(dp2683
g74
I4
ssg75
Nsg68
(lp2684
sbasbasbasbag61
(g77
g63
NtRp2685
(dp2686
g66
(dp2687
sg75
g2426
sg68
(lp2688
g61
(g82
g63
NtRp2689
(dp2690
g66
(dp2691
g86
g87
ssg75
g2685
sg68
(lp2692
S'flash'
p2693
asbag61
(g82
g63
NtRp2694
(dp2695
g66
(dp2696
g93
g94
ssg75
g2685
sg68
(lp2697
S':'
asbag61
(g82
g63
NtRp2698
(dp2699
g66
(dp2700
sg75
g2685
sg68
(lp2701
g61
(g62
g63
NtRp2702
(dp2703
g66
(dp2704
g74
I5
ssg75
g2698
sg68
(lp2705
S''
asbasbasbag61
(g77
g63
NtRp2706
(dp2707
g66
(dp2708
sg75
g2426
sg68
(lp2709
g61
(g82
g63
NtRp2710
(dp2711
g66
(dp2712
g86
g87
ssg75
g2706
sg68
(lp2713
S'headers'
p2714
asbag61
(g82
g63
NtRp2715
(dp2716
g66
(dp2717
g93
g94
ssg75
g2706
sg68
(lp2718
S':'
asbag61
(g82
g63
NtRp2719
(dp2720
g66
(dp2721
sg75
g2706
sg68
(lp2722
g61
(g62
g63
NtRp2723
(dp2724
g66
(dp2725
g74
I5
ssg75
g2719
sg68
(lp2726
g61
(g70
g63
NtRp2727
(dp2728
g66
(dp2729
g74
I4
ssg75
Nsg68
(lp2730
g61
(g77
g63
NtRp2731
(dp2732
g66
(dp2733
sg75
g2727
sg68
(lp2734
g61
(g82
g63
NtRp2735
(dp2736
g66
(dp2737
g86
g87
ssg75
g2731
sg68
(lp2738
S'Cache-Control'
p2739
asbag61
(g82
g63
NtRp2740
(dp2741
g66
(dp2742
g93
g94
ssg75
g2731
sg68
(lp2743
S':'
asbag61
(g82
g63
NtRp2744
(dp2745
g66
(dp2746
sg75
g2731
sg68
(lp2747
g61
(g62
g63
NtRp2748
(dp2749
g66
(dp2750
g74
I4
ssg75
g2744
sg68
(lp2751
S'no-store, no-cache, must-revalidate, post-check=0, pre-check=0'
p2752
asbasbasbag61
(g77
g63
NtRp2753
(dp2754
g66
(dp2755
sg75
g2727
sg68
(lp2756
g61
(g82
g63
NtRp2757
(dp2758
g66
(dp2759
g86
g87
ssg75
g2753
sg68
(lp2760
S'Content-Type'
p2761
asbag61
(g82
g63
NtRp2762
(dp2763
g66
(dp2764
g93
g94
ssg75
g2753
sg68
(lp2765
S':'
asbag61
(g82
g63
NtRp2766
(dp2767
g66
(dp2768
sg75
g2753
sg68
(lp2769
g61
(g62
g63
NtRp2770
(dp2771
g66
(dp2772
g74
I4
ssg75
g2766
sg68
(lp2773
S'text/html; charset=utf-8'
p2774
asbasbasbag61
(g77
g63
NtRp2775
(dp2776
g66
(dp2777
sg75
g2727
sg68
(lp2778
g61
(g82
g63
NtRp2779
(dp2780
g66
(dp2781
g86
g87
ssg75
g2775
sg68
(lp2782
S'Expires'
p2783
asbag61
(g82
g63
NtRp2784
(dp2785
g66
(dp2786
g93
g94
ssg75
g2775
sg68
(lp2787
S':'
asbag61
(g82
g63
NtRp2788
(dp2789
g66
(dp2790
sg75
g2775
sg68
(lp2791
g61
(g62
g63
NtRp2792
(dp2793
g66
(dp2794
g74
I4
ssg75
g2788
sg68
(lp2795
S'Tue, 21 Jun 2011 19:34:20 GMT'
p2796
asbasbasbag61
(g77
g63
NtRp2797
(dp2798
g66
(dp2799
sg75
g2727
sg68
(lp2800
g61
(g82
g63
NtRp2801
(dp2802
g66
(dp2803
g86
g87
ssg75
g2797
sg68
(lp2804
S'Pragma'
p2805
asbag61
(g82
g63
NtRp2806
(dp2807
g66
(dp2808
g93
g94
ssg75
g2797
sg68
(lp2809
S':'
asbag61
(g82
g63
NtRp2810
(dp2811
g66
(dp2812
sg75
g2797
sg68
(lp2813
g61
(g62
g63
NtRp2814
(dp2815
g66
(dp2816
g74
I4
ssg75
g2810
sg68
(lp2817
S'no-cache'
p2818
asbasbasbag61
(g77
g63
NtRp2819
(dp2820
g66
(dp2821
sg75
g2727
sg68
(lp2822
g61
(g82
g63
NtRp2823
(dp2824
g66
(dp2825
g86
g87
ssg75
g2819
sg68
(lp2826
S'X-Powered-By'
p2827
asbag61
(g82
g63
NtRp2828
(dp2829
g66
(dp2830
g93
g94
ssg75
g2819
sg68
(lp2831
S':'
asbag61
(g82
g63
NtRp2832
(dp2833
g66
(dp2834
sg75
g2819
sg68
(lp2835
g61
(g62
g63
NtRp2836
(dp2837
g66
(dp2838
g74
I4
ssg75
g2832
sg68
(lp2839
S'web2py'
p2840
asbasbasbasbasbasbasbag61
(g77
g63
NtRp2841
(dp2842
g66
(dp2843
sg75
g2426
sg68
(lp2844
g61
(g82
g63
NtRp2845
(dp2846
g66
(dp2847
g86
g87
ssg75
g2841
sg68
(lp2848
S'menu'
p2849
asbag61
(g82
g63
NtRp2850
(dp2851
g66
(dp2852
g93
g94
ssg75
g2841
sg68
(lp2853
S':'
asbag61
(g82
g63
NtRp2854
(dp2855
g66
(dp2856
sg75
g2841
sg68
(lp2857
g61
(g62
g63
NtRp2858
(dp2859
g66
(dp2860
g74
I5
ssg75
g2854
sg68
(lp2861
g61
(g70
g63
NtRp2862
(dp2863
g66
(dp2864
g74
I4
ssg75
Nsg68
(lp2865
sbasbasbasbag61
(g77
g63
NtRp2866
(dp2867
g66
(dp2868
sg75
g2426
sg68
(lp2869
g61
(g82
g63
NtRp2870
(dp2871
g66
(dp2872
g86
g87
ssg75
g2866
sg68
(lp2873
S'meta'
p2874
asbag61
(g82
g63
NtRp2875
(dp2876
g66
(dp2877
g93
g94
ssg75
g2866
sg68
(lp2878
S':'
asbag61
(g82
g63
NtRp2879
(dp2880
g66
(dp2881
sg75
g2866
sg68
(lp2882
g61
(g62
g63
NtRp2883
(dp2884
g66
(dp2885
g74
I5
ssg75
g2879
sg68
(lp2886
g61
(g70
g63
NtRp2887
(dp2888
g66
(dp2889
g74
I4
ssg75
Nsg68
(lp2890
sbasbasbasbag61
(g77
g63
NtRp2891
(dp2892
g66
(dp2893
sg75
g2426
sg68
(lp2894
g61
(g82
g63
NtRp2895
(dp2896
g66
(dp2897
g86
g87
ssg75
g2891
sg68
(lp2898
S'postprocessing'
p2899
asbag61
(g82
g63
NtRp2900
(dp2901
g66
(dp2902
g93
g94
ssg75
g2891
sg68
(lp2903
S':'
asbag61
(g82
g63
NtRp2904
(dp2905
g66
(dp2906
sg75
g2891
sg68
(lp2907
g61
(g62
g63
NtRp2908
(dp2909
g66
(dp2910
g74
I5
ssg75
g2904
sg68
(lp2911
g61
(g70
g63
NtRp2912
(dp2913
g66
(dp2914
g74
I4
ssg75
Nsg68
(lp2915
sbasbasbasbag61
(g77
g63
NtRp2916
(dp2917
g66
(dp2918
sg75
g2426
sg68
(lp2919
g61
(g82
g63
NtRp2920
(dp2921
g66
(dp2922
g86
g87
ssg75
g2916
sg68
(lp2923
S'session_filename'
p2924
asbag61
(g82
g63
NtRp2925
(dp2926
g66
(dp2927
g93
g94
ssg75
g2916
sg68
(lp2928
S':'
asbag61
(g82
g63
NtRp2929
(dp2930
g66
(dp2931
sg75
g2916
sg68
(lp2932
g61
(g62
g63
NtRp2933
(dp2934
g66
(dp2935
g74
I5
ssg75
g2929
sg68
(lp2936
S'/home/arvin/web2py/applications/welcome/sessions/186.32.48.60-34b4bbce-1493-42e1-a47d-bb0007bf3882'
p2937
asbasbasbag61
(g77
g63
NtRp2938
(dp2939
g66
(dp2940
sg75
g2426
sg68
(lp2941
g61
(g82
g63
NtRp2942
(dp2943
g66
(dp2944
g86
g87
ssg75
g2938
sg68
(lp2945
S'session_id'
p2946
asbag61
(g82
g63
NtRp2947
(dp2948
g66
(dp2949
g93
g94
ssg75
g2938
sg68
(lp2950
S':'
asbag61
(g82
g63
NtRp2951
(dp2952
g66
(dp2953
sg75
g2938
sg68
(lp2954
g61
(g62
g63
NtRp2955
(dp2956
g66
(dp2957
g74
I5
ssg75
g2951
sg68
(lp2958
S'186.32.48.60-34b4bbce-1493-42e1-a47d-bb0007bf3882'
p2959
asbasbasbag61
(g77
g63
NtRp2960
(dp2961
g66
(dp2962
sg75
g2426
sg68
(lp2963
g61
(g82
g63
NtRp2964
(dp2965
g66
(dp2966
g86
g87
ssg75
g2960
sg68
(lp2967
S'session_id_name'
p2968
asbag61
(g82
g63
NtRp2969
(dp2970
g66
(dp2971
g93
g94
ssg75
g2960
sg68
(lp2972
S':'
asbag61
(g82
g63
NtRp2973
(dp2974
g66
(dp2975
sg75
g2960
sg68
(lp2976
g61
(g62
g63
NtRp2977
(dp2978
g66
(dp2979
g74
I5
ssg75
g2973
sg68
(lp2980
g2483
asbasbasbag61
(g77
g63
NtRp2981
(dp2982
g66
(dp2983
sg75
g2426
sg68
(lp2984
g61
(g82
g63
NtRp2985
(dp2986
g66
(dp2987
g86
g87
ssg75
g2981
sg68
(lp2988
S'session_new'
p2989
asbag61
(g82
g63
NtRp2990
(dp2991
g66
(dp2992
g93
g94
ssg75
g2981
sg68
(lp2993
S':'
asbag61
(g82
g63
NtRp2994
(dp2995
g66
(dp2996
sg75
g2981
sg68
(lp2997
g61
(g62
g63
NtRp2998
(dp2999
g66
(dp3000
g74
I5
ssg75
g2994
sg68
(lp3001
S'True'
p3002
asbasbasbag61
(g77
g63
NtRp3003
(dp3004
g66
(dp3005
sg75
g2426
sg68
(lp3006
g61
(g82
g63
NtRp3007
(dp3008
g66
(dp3009
g86
g87
ssg75
g3003
sg68
(lp3010
S'status'
p3011
asbag61
(g82
g63
NtRp3012
(dp3013
g66
(dp3014
g93
g94
ssg75
g3003
sg68
(lp3015
S':'
asbag61
(g82
g63
NtRp3016
(dp3017
g66
(dp3018
sg75
g3003
sg68
(lp3019
g61
(g62
g63
NtRp3020
(dp3021
g66
(dp3022
g74
I5
ssg75
g3016
sg68
(lp3023
S'200'
p3024
asbasbasbag61
(g77
g63
NtRp3025
(dp3026
g66
(dp3027
sg75
g2426
sg68
(lp3028
g61
(g82
g63
NtRp3029
(dp3030
g66
(dp3031
g86
g87
ssg75
g3025
sg68
(lp3032
g1544
asbag61
(g82
g63
NtRp3033
(dp3034
g66
(dp3035
g93
g94
ssg75
g3025
sg68
(lp3036
S':'
asbag61
(g82
g63
NtRp3037
(dp3038
g66
(dp3039
sg75
g3025
sg68
(lp3040
g61
(g62
g63
NtRp3041
(dp3042
g66
(dp3043
g74
I5
ssg75
g3037
sg68
(lp3044
g1557
asbasbasbasbasbsS'locals'
p3045
(dp3046
S'locker_locked'
p3047
g104
sS'speedup_key'
p3048
S"('/home/arvin/web2py/applications/welcome/cache', 'web2py_cache_statistics')"
p3049
sS'self'
p3050
S'<gluon.cache.CacheOnDisk object>'
p3051
sg60
S"<Storage {'is_local': False, 'function': 'index'....13-34-20.625d64fb-7198-40c6-b124-fdc4877c0df1'}>"
p3052
sS'locker'
p3053
S'None'
p3054
sg1343
S"'/home/arvin/web2py/applications/welcome/cache'"
p3055
sssS'traceback'
p3056
S'Traceback (most recent call last):\n  File "/home/arvin/web2py/gluon/main.py", line 485, in wsgibase\n    serve_controller(request, response, session)\n  File "/home/arvin/web2py/gluon/main.py", line 188, in serve_controller\n    environment = build_environment(request, response, session)\n  File "/home/arvin/web2py/gluon/compileapp.py", line 233, in build_environment\n    current.cache = environment[\'cache\'] = Cache(request)\n  File "/home/arvin/web2py/gluon/cache.py", line 376, in __init__\n    self.disk = CacheOnDisk(request)\n  File "/home/arvin/web2py/gluon/cache.py", line 261, in __init__\n    os.unlink(self.shelve_name)\nOSError: [Errno 13] Permission denied: \'/home/arvin/web2py/applications/welcome/cache/cache.shelve\'\n'
p3057
s.