(dp1
S'output'
p2
S''
sS'layer'
p3
S'/home/arvin/web2py/applications/welcome/models/db.py'
p4
sS'code'
p5
S'# -*- coding: utf-8 -*-\n# this file is released under public domain and you can use without limitations\n\n#########################################################################\n## This scaffolding model makes your app work on Google App Engine too\n#########################################################################\n\nif request.env.web2py_runtime_gae:            # if running on Google App Engine\n    db = DAL(\'google:datastore\')              # connect to Google BigTable\n                                              # optional DAL(\'gae://namespace\')\n    session.connect(request, response, db = db) # and store sessions and tickets there\n    ### or use the following lines to store sessions in Memcache\n    # from gluon.contrib.memdb import MEMDB\n    # from google.appengine.api.memcache import Client\n    # session.connect(request, response, db = MEMDB(Client()))\nelse:                                         # else use a normal relational database\n    db = DAL(\'mysql://root:root@localhost/w2py\')       # if not, use SQLite or other DB\n              #\'sqlite://storage.sqlite\'\n# by default give a view/generic.extension to all actions from localhost\n# none otherwise. a pattern can be \'controller/function.extension\'\nresponse.generic_patterns = [\'*\'] if request.is_local else []\n\n#########################################################################\n## Here is sample code if you need for\n## - email capabilities\n## - authentication (registration, login, logout, ... )\n## - authorization (role based authorization)\n## - services (xml, csv, json, xmlrpc, jsonrpc, amf, rss)\n## - crud actions\n## (more options discussed in gluon/tools.py)\n#########################################################################\n\nfrom gluon.tools import Mail, Auth, Crud, Service, PluginManager, prettydate\nmail = Mail()                                  # mailer\nauth = Auth(db)                                # authentication/authorization\ncrud = Crud(db)                                # for CRUD helpers using auth\nservice = Service()                            # for json, xml, jsonrpc, xmlrpc, amfrpc\nplugins = PluginManager()                      # for configuring plugins\n\nmail.settings.server = \'logging\' or \'smtp.gmail.com:587\'  # your SMTP server\nmail.settings.sender = \'you@gmail.com\'         # your email\nmail.settings.login = \'username:password\'      # your credentials or None\n\nauth.settings.hmac_key = \'<your secret key>\'   # before define_tables()\nauth.define_tables()                           # creates all needed tables\nauth.settings.mailer = mail                    # for user email verification\nauth.settings.registration_requires_verification = False\nauth.settings.registration_requires_approval = False\nauth.messages.verify_email = \'Click on the link http://\'+request.env.http_host+URL(\'default\',\'user\',args=[\'verify_email\'])+\'/%(key)s to verify your email\'\nauth.settings.reset_password_requires_verification = True\nauth.messages.reset_password = \'Click on the link http://\'+request.env.http_host+URL(\'default\',\'user\',args=[\'reset_password\'])+\'/%(key)s to reset your password\'\n\n#########################################################################\n## If you need to use OpenID, Facebook, MySpace, Twitter, Linkedin, etc.\n## register with janrain.com, uncomment and customize following\n# from gluon.contrib.login_methods.rpx_account import RPXAccount\n# auth.settings.actions_disabled = \\\n#    [\'register\',\'change_password\',\'request_reset_password\']\n# auth.settings.login_form = RPXAccount(request, api_key=\'...\',domain=\'...\',\n#    url = "http://localhost:8000/%s/default/user/login" % request.application)\n## other login methods are in gluon/contrib/login_methods\n#########################################################################\n\ncrud.settings.auth = None        # =auth to enforce authorization on crud\n\n#########################################################################\n## Define your tables below (or better in another model file) for example\n##\n## >>> db.define_table(\'mytable\',Field(\'myfield\',\'string\'))\n##\n## Fields can be \'string\',\'text\',\'password\',\'integer\',\'double\',\'boolean\'\n##       \'date\',\'time\',\'datetime\',\'blob\',\'upload\', \'reference TABLENAME\'\n## There is an implicit \'id integer autoincrement\' field\n## Consult manual for more options, validators, etc.\n##\n## More API examples for controllers:\n##\n## >>> db.mytable.insert(myfield=\'value\')\n## >>> rows=db(db.mytable.myfield==\'value\').select(db.mytable.ALL)\n## >>> for row in rows: print row.id, row.myfield\n#########################################################################\n'
p6
sS'snapshot'
p7
(dp8
S'exception'
p9
(dp10
S'__hash__'
p11
S"<method-wrapper '__hash__' of exceptions.RuntimeError object>"
p12
sS'__setattr__'
p13
S"<method-wrapper '__setattr__' of exceptions.RuntimeError object>"
p14
sS'__reduce_ex__'
p15
S'<built-in method __reduce_ex__ of exceptions.RuntimeError object>'
p16
sS'__getslice__'
p17
S"<method-wrapper '__getslice__' of exceptions.RuntimeError object>"
p18
sS'__getitem__'
p19
S"<method-wrapper '__getitem__' of exceptions.RuntimeError object>"
p20
sS'__setstate__'
p21
S'<built-in method __setstate__ of exceptions.RuntimeError object>'
p22
sS'__reduce__'
p23
S'<built-in method __reduce__ of exceptions.RuntimeError object>'
p24
sS'__str__'
p25
S"<method-wrapper '__str__' of exceptions.RuntimeError object>"
p26
sS'__format__'
p27
S'<built-in method __format__ of exceptions.RuntimeError object>'
p28
sS'__getattribute__'
p29
S"<method-wrapper '__getattribute__' of exceptions.RuntimeError object>"
p30
sS'__class__'
p31
S"<type 'exceptions.RuntimeError'>"
p32
sS'__unicode__'
p33
S'<built-in method __unicode__ of exceptions.RuntimeError object>'
p34
sS'__delattr__'
p35
S"<method-wrapper '__delattr__' of exceptions.RuntimeError object>"
p36
sS'__subclasshook__'
p37
S'<built-in method __subclasshook__ of type object>'
p38
sS'__repr__'
p39
S"<method-wrapper '__repr__' of exceptions.RuntimeError object>"
p40
sS'args'
p41
S'(\'Failure to connect, tried 5 times:\\n(2003, "Can\\\'t connect to MySQL server on \\\'localhost\\\' (111)")\',)'
p42
sS'__dict__'
p43
S'{}'
p44
sS'__sizeof__'
p45
S'<built-in method __sizeof__ of exceptions.RuntimeError object>'
p46
sS'__doc__'
p47
S"'Unspecified run-time error.'"
p48
sS'__init__'
p49
S"<method-wrapper '__init__' of exceptions.RuntimeError object>"
p50
sS'__new__'
p51
S'<built-in method __new__ of type object>'
p52
ssS'evalue'
p53
S'Failure to connect, tried 5 times:\n(2003, "Can\'t connect to MySQL server on \'localhost\' (111)")'
p54
sS'request'
p55
ccopy_reg
_reconstructor
p56
(cgluon.html
BEAUTIFY
p57
c__builtin__
object
p58
NtRp59
(dp60
S'attributes'
p61
(dp62
sS'components'
p63
(lp64
g56
(cgluon.html
TABLE
p65
g58
NtRp66
(dp67
g61
(dp68
S'level'
p69
I5
ssS'parent'
p70
Nsg63
(lp71
g56
(cgluon.html
TR
p72
g58
NtRp73
(dp74
g61
(dp75
sg70
g66
sg63
(lp76
g56
(cgluon.html
TD
p77
g58
NtRp78
(dp79
g61
(dp80
S'_style'
p81
S'font-weight:bold;'
p82
ssg70
g73
sg63
(lp83
S'ajax'
p84
asbag56
(g77
g58
NtRp85
(dp86
g61
(dp87
S'_valign'
p88
S'top'
p89
ssg70
g73
sg63
(lp90
S':'
asbag56
(g77
g58
NtRp91
(dp92
g61
(dp93
sg70
g73
sg63
(lp94
g56
(g57
g58
NtRp95
(dp96
g61
(dp97
g69
I5
ssg70
g91
sg63
(lp98
S'False'
p99
asbasbasbag56
(g72
g58
NtRp100
(dp101
g61
(dp102
sg70
g66
sg63
(lp103
g56
(g77
g58
NtRp104
(dp105
g61
(dp106
g81
g82
ssg70
g100
sg63
(lp107
S'application'
p108
asbag56
(g77
g58
NtRp109
(dp110
g61
(dp111
g88
g89
ssg70
g100
sg63
(lp112
S':'
asbag56
(g77
g58
NtRp113
(dp114
g61
(dp115
sg70
g100
sg63
(lp116
g56
(g57
g58
NtRp117
(dp118
g61
(dp119
g69
I5
ssg70
g113
sg63
(lp120
S'welcome'
p121
asbasbasbag56
(g72
g58
NtRp122
(dp123
g61
(dp124
sg70
g66
sg63
(lp125
g56
(g77
g58
NtRp126
(dp127
g61
(dp128
g81
g82
ssg70
g122
sg63
(lp129
g41
asbag56
(g77
g58
NtRp130
(dp131
g61
(dp132
g88
g89
ssg70
g122
sg63
(lp133
S':'
asbag56
(g77
g58
NtRp134
(dp135
g61
(dp136
sg70
g122
sg63
(lp137
g56
(g57
g58
NtRp138
(dp139
g61
(dp140
g69
I5
ssg70
g134
sg63
(lp141
g56
(g65
g58
NtRp142
(dp143
g61
(dp144
g69
I4
ssg70
Nsg63
(lp145
sbasbasbasbag56
(g72
g58
NtRp146
(dp147
g61
(dp148
sg70
g66
sg63
(lp149
g56
(g77
g58
NtRp150
(dp151
g61
(dp152
g81
g82
ssg70
g146
sg63
(lp153
S'body'
p154
asbag56
(g77
g58
NtRp155
(dp156
g61
(dp157
g88
g89
ssg70
g146
sg63
(lp158
S':'
asbag56
(g77
g58
NtRp159
(dp160
g61
(dp161
sg70
g146
sg63
(lp162
g56
(g57
g58
NtRp163
(dp164
g61
(dp165
g69
I5
ssg70
g159
sg63
(lp166
S'<cStringIO.StringO object at 0x89d6da0>'
p167
asbasbasbag56
(g72
g58
NtRp168
(dp169
g61
(dp170
sg70
g66
sg63
(lp171
g56
(g77
g58
NtRp172
(dp173
g61
(dp174
g81
g82
ssg70
g168
sg63
(lp175
S'client'
p176
asbag56
(g77
g58
NtRp177
(dp178
g61
(dp179
g88
g89
ssg70
g168
sg63
(lp180
S':'
asbag56
(g77
g58
NtRp181
(dp182
g61
(dp183
sg70
g168
sg63
(lp184
g56
(g57
g58
NtRp185
(dp186
g61
(dp187
g69
I5
ssg70
g181
sg63
(lp188
S'186.32.48.60'
p189
asbasbasbag56
(g72
g58
NtRp190
(dp191
g61
(dp192
sg70
g66
sg63
(lp193
g56
(g77
g58
NtRp194
(dp195
g61
(dp196
g81
g82
ssg70
g190
sg63
(lp197
S'controller'
p198
asbag56
(g77
g58
NtRp199
(dp200
g61
(dp201
g88
g89
ssg70
g190
sg63
(lp202
S':'
asbag56
(g77
g58
NtRp203
(dp204
g61
(dp205
sg70
g190
sg63
(lp206
g56
(g57
g58
NtRp207
(dp208
g61
(dp209
g69
I5
ssg70
g203
sg63
(lp210
S'default'
p211
asbasbasbag56
(g72
g58
NtRp212
(dp213
g61
(dp214
sg70
g66
sg63
(lp215
g56
(g77
g58
NtRp216
(dp217
g61
(dp218
g81
g82
ssg70
g212
sg63
(lp219
S'cookies'
p220
asbag56
(g77
g58
NtRp221
(dp222
g61
(dp223
g88
g89
ssg70
g212
sg63
(lp224
S':'
asbag56
(g77
g58
NtRp225
(dp226
g61
(dp227
sg70
g212
sg63
(lp228
g56
(g57
g58
NtRp229
(dp230
g61
(dp231
g69
I5
ssg70
g225
sg63
(lp232
g56
(g65
g58
NtRp233
(dp234
g61
(dp235
g69
I4
ssg70
Nsg63
(lp236
g56
(g72
g58
NtRp237
(dp238
g61
(dp239
sg70
g233
sg63
(lp240
g56
(g77
g58
NtRp241
(dp242
g61
(dp243
g81
g82
ssg70
g237
sg63
(lp244
S'session_id_admin'
p245
asbag56
(g77
g58
NtRp246
(dp247
g61
(dp248
g88
g89
ssg70
g237
sg63
(lp249
S':'
asbag56
(g77
g58
NtRp250
(dp251
g61
(dp252
sg70
g237
sg63
(lp253
g56
(g57
g58
NtRp254
(dp255
g61
(dp256
g69
I4
ssg70
g250
sg63
(lp257
g56
(g65
g58
NtRp258
(dp259
g61
(dp260
g69
I3
ssg70
Nsg63
(lp261
g56
(g72
g58
NtRp262
(dp263
g61
(dp264
sg70
g258
sg63
(lp265
g56
(g77
g58
NtRp266
(dp267
g61
(dp268
g81
g82
ssg70
g262
sg63
(lp269
S'comment'
p270
asbag56
(g77
g58
NtRp271
(dp272
g61
(dp273
g88
g89
ssg70
g262
sg63
(lp274
S':'
asbag56
(g77
g58
NtRp275
(dp276
g61
(dp277
sg70
g262
sg63
(lp278
g56
(g57
g58
NtRp279
(dp280
g61
(dp281
g69
I3
ssg70
g275
sg63
(lp282
S''
asbasbasbag56
(g72
g58
NtRp283
(dp284
g61
(dp285
sg70
g258
sg63
(lp286
g56
(g77
g58
NtRp287
(dp288
g61
(dp289
g81
g82
ssg70
g283
sg63
(lp290
S'domain'
p291
asbag56
(g77
g58
NtRp292
(dp293
g61
(dp294
g88
g89
ssg70
g283
sg63
(lp295
S':'
asbag56
(g77
g58
NtRp296
(dp297
g61
(dp298
sg70
g283
sg63
(lp299
g56
(g57
g58
NtRp300
(dp301
g61
(dp302
g69
I3
ssg70
g296
sg63
(lp303
S''
asbasbasbag56
(g72
g58
NtRp304
(dp305
g61
(dp306
sg70
g258
sg63
(lp307
g56
(g77
g58
NtRp308
(dp309
g61
(dp310
g81
g82
ssg70
g304
sg63
(lp311
S'expires'
p312
asbag56
(g77
g58
NtRp313
(dp314
g61
(dp315
g88
g89
ssg70
g304
sg63
(lp316
S':'
asbag56
(g77
g58
NtRp317
(dp318
g61
(dp319
sg70
g304
sg63
(lp320
g56
(g57
g58
NtRp321
(dp322
g61
(dp323
g69
I3
ssg70
g317
sg63
(lp324
S''
asbasbasbag56
(g72
g58
NtRp325
(dp326
g61
(dp327
sg70
g258
sg63
(lp328
g56
(g77
g58
NtRp329
(dp330
g61
(dp331
g81
g82
ssg70
g325
sg63
(lp332
S'httponly'
p333
asbag56
(g77
g58
NtRp334
(dp335
g61
(dp336
g88
g89
ssg70
g325
sg63
(lp337
S':'
asbag56
(g77
g58
NtRp338
(dp339
g61
(dp340
sg70
g325
sg63
(lp341
g56
(g57
g58
NtRp342
(dp343
g61
(dp344
g69
I3
ssg70
g338
sg63
(lp345
S''
asbasbasbag56
(g72
g58
NtRp346
(dp347
g61
(dp348
sg70
g258
sg63
(lp349
g56
(g77
g58
NtRp350
(dp351
g61
(dp352
g81
g82
ssg70
g346
sg63
(lp353
S'max-age'
p354
asbag56
(g77
g58
NtRp355
(dp356
g61
(dp357
g88
g89
ssg70
g346
sg63
(lp358
S':'
asbag56
(g77
g58
NtRp359
(dp360
g61
(dp361
sg70
g346
sg63
(lp362
g56
(g57
g58
NtRp363
(dp364
g61
(dp365
g69
I3
ssg70
g359
sg63
(lp366
S''
asbasbasbag56
(g72
g58
NtRp367
(dp368
g61
(dp369
sg70
g258
sg63
(lp370
g56
(g77
g58
NtRp371
(dp372
g61
(dp373
g81
g82
ssg70
g367
sg63
(lp374
S'path'
p375
asbag56
(g77
g58
NtRp376
(dp377
g61
(dp378
g88
g89
ssg70
g367
sg63
(lp379
S':'
asbag56
(g77
g58
NtRp380
(dp381
g61
(dp382
sg70
g367
sg63
(lp383
g56
(g57
g58
NtRp384
(dp385
g61
(dp386
g69
I3
ssg70
g380
sg63
(lp387
S''
asbasbasbag56
(g72
g58
NtRp388
(dp389
g61
(dp390
sg70
g258
sg63
(lp391
g56
(g77
g58
NtRp392
(dp393
g61
(dp394
g81
g82
ssg70
g388
sg63
(lp395
S'secure'
p396
asbag56
(g77
g58
NtRp397
(dp398
g61
(dp399
g88
g89
ssg70
g388
sg63
(lp400
S':'
asbag56
(g77
g58
NtRp401
(dp402
g61
(dp403
sg70
g388
sg63
(lp404
g56
(g57
g58
NtRp405
(dp406
g61
(dp407
g69
I3
ssg70
g401
sg63
(lp408
S''
asbasbasbag56
(g72
g58
NtRp409
(dp410
g61
(dp411
sg70
g258
sg63
(lp412
g56
(g77
g58
NtRp413
(dp414
g61
(dp415
g81
g82
ssg70
g409
sg63
(lp416
S'version'
p417
asbag56
(g77
g58
NtRp418
(dp419
g61
(dp420
g88
g89
ssg70
g409
sg63
(lp421
S':'
asbag56
(g77
g58
NtRp422
(dp423
g61
(dp424
sg70
g409
sg63
(lp425
g56
(g57
g58
NtRp426
(dp427
g61
(dp428
g69
I3
ssg70
g422
sg63
(lp429
S''
asbasbasbasbasbasbasbag56
(g72
g58
NtRp430
(dp431
g61
(dp432
sg70
g233
sg63
(lp433
g56
(g77
g58
NtRp434
(dp435
g61
(dp436
g81
g82
ssg70
g430
sg63
(lp437
S'session_id_init'
p438
asbag56
(g77
g58
NtRp439
(dp440
g61
(dp441
g88
g89
ssg70
g430
sg63
(lp442
S':'
asbag56
(g77
g58
NtRp443
(dp444
g61
(dp445
sg70
g430
sg63
(lp446
g56
(g57
g58
NtRp447
(dp448
g61
(dp449
g69
I4
ssg70
g443
sg63
(lp450
g56
(g65
g58
NtRp451
(dp452
g61
(dp453
g69
I3
ssg70
Nsg63
(lp454
g56
(g72
g58
NtRp455
(dp456
g61
(dp457
sg70
g451
sg63
(lp458
g56
(g77
g58
NtRp459
(dp460
g61
(dp461
g81
g82
ssg70
g455
sg63
(lp462
g270
asbag56
(g77
g58
NtRp463
(dp464
g61
(dp465
g88
g89
ssg70
g455
sg63
(lp466
S':'
asbag56
(g77
g58
NtRp467
(dp468
g61
(dp469
sg70
g455
sg63
(lp470
g56
(g57
g58
NtRp471
(dp472
g61
(dp473
g69
I3
ssg70
g467
sg63
(lp474
S''
asbasbasbag56
(g72
g58
NtRp475
(dp476
g61
(dp477
sg70
g451
sg63
(lp478
g56
(g77
g58
NtRp479
(dp480
g61
(dp481
g81
g82
ssg70
g475
sg63
(lp482
g291
asbag56
(g77
g58
NtRp483
(dp484
g61
(dp485
g88
g89
ssg70
g475
sg63
(lp486
S':'
asbag56
(g77
g58
NtRp487
(dp488
g61
(dp489
sg70
g475
sg63
(lp490
g56
(g57
g58
NtRp491
(dp492
g61
(dp493
g69
I3
ssg70
g487
sg63
(lp494
S''
asbasbasbag56
(g72
g58
NtRp495
(dp496
g61
(dp497
sg70
g451
sg63
(lp498
g56
(g77
g58
NtRp499
(dp500
g61
(dp501
g81
g82
ssg70
g495
sg63
(lp502
g312
asbag56
(g77
g58
NtRp503
(dp504
g61
(dp505
g88
g89
ssg70
g495
sg63
(lp506
S':'
asbag56
(g77
g58
NtRp507
(dp508
g61
(dp509
sg70
g495
sg63
(lp510
g56
(g57
g58
NtRp511
(dp512
g61
(dp513
g69
I3
ssg70
g507
sg63
(lp514
S''
asbasbasbag56
(g72
g58
NtRp515
(dp516
g61
(dp517
sg70
g451
sg63
(lp518
g56
(g77
g58
NtRp519
(dp520
g61
(dp521
g81
g82
ssg70
g515
sg63
(lp522
g333
asbag56
(g77
g58
NtRp523
(dp524
g61
(dp525
g88
g89
ssg70
g515
sg63
(lp526
S':'
asbag56
(g77
g58
NtRp527
(dp528
g61
(dp529
sg70
g515
sg63
(lp530
g56
(g57
g58
NtRp531
(dp532
g61
(dp533
g69
I3
ssg70
g527
sg63
(lp534
S''
asbasbasbag56
(g72
g58
NtRp535
(dp536
g61
(dp537
sg70
g451
sg63
(lp538
g56
(g77
g58
NtRp539
(dp540
g61
(dp541
g81
g82
ssg70
g535
sg63
(lp542
g354
asbag56
(g77
g58
NtRp543
(dp544
g61
(dp545
g88
g89
ssg70
g535
sg63
(lp546
S':'
asbag56
(g77
g58
NtRp547
(dp548
g61
(dp549
sg70
g535
sg63
(lp550
g56
(g57
g58
NtRp551
(dp552
g61
(dp553
g69
I3
ssg70
g547
sg63
(lp554
S''
asbasbasbag56
(g72
g58
NtRp555
(dp556
g61
(dp557
sg70
g451
sg63
(lp558
g56
(g77
g58
NtRp559
(dp560
g61
(dp561
g81
g82
ssg70
g555
sg63
(lp562
g375
asbag56
(g77
g58
NtRp563
(dp564
g61
(dp565
g88
g89
ssg70
g555
sg63
(lp566
S':'
asbag56
(g77
g58
NtRp567
(dp568
g61
(dp569
sg70
g555
sg63
(lp570
g56
(g57
g58
NtRp571
(dp572
g61
(dp573
g69
I3
ssg70
g567
sg63
(lp574
S''
asbasbasbag56
(g72
g58
NtRp575
(dp576
g61
(dp577
sg70
g451
sg63
(lp578
g56
(g77
g58
NtRp579
(dp580
g61
(dp581
g81
g82
ssg70
g575
sg63
(lp582
g396
asbag56
(g77
g58
NtRp583
(dp584
g61
(dp585
g88
g89
ssg70
g575
sg63
(lp586
S':'
asbag56
(g77
g58
NtRp587
(dp588
g61
(dp589
sg70
g575
sg63
(lp590
g56
(g57
g58
NtRp591
(dp592
g61
(dp593
g69
I3
ssg70
g587
sg63
(lp594
S''
asbasbasbag56
(g72
g58
NtRp595
(dp596
g61
(dp597
sg70
g451
sg63
(lp598
g56
(g77
g58
NtRp599
(dp600
g61
(dp601
g81
g82
ssg70
g595
sg63
(lp602
g417
asbag56
(g77
g58
NtRp603
(dp604
g61
(dp605
g88
g89
ssg70
g595
sg63
(lp606
S':'
asbag56
(g77
g58
NtRp607
(dp608
g61
(dp609
sg70
g595
sg63
(lp610
g56
(g57
g58
NtRp611
(dp612
g61
(dp613
g69
I3
ssg70
g607
sg63
(lp614
S''
asbasbasbasbasbasbasbasbasbasbasbag56
(g72
g58
NtRp615
(dp616
g61
(dp617
sg70
g66
sg63
(lp618
g56
(g77
g58
NtRp619
(dp620
g61
(dp621
g81
g82
ssg70
g615
sg63
(lp622
S'env'
p623
asbag56
(g77
g58
NtRp624
(dp625
g61
(dp626
g88
g89
ssg70
g615
sg63
(lp627
S':'
asbag56
(g77
g58
NtRp628
(dp629
g61
(dp630
sg70
g615
sg63
(lp631
g56
(g57
g58
NtRp632
(dp633
g61
(dp634
g69
I5
ssg70
g628
sg63
(lp635
g56
(g65
g58
NtRp636
(dp637
g61
(dp638
g69
I4
ssg70
Nsg63
(lp639
g56
(g72
g58
NtRp640
(dp641
g61
(dp642
sg70
g636
sg63
(lp643
g56
(g77
g58
NtRp644
(dp645
g61
(dp646
g81
g82
ssg70
g640
sg63
(lp647
S'app_folders'
p648
asbag56
(g77
g58
NtRp649
(dp650
g61
(dp651
g88
g89
ssg70
g640
sg63
(lp652
S':'
asbag56
(g77
g58
NtRp653
(dp654
g61
(dp655
sg70
g640
sg63
(lp656
g56
(g57
g58
NtRp657
(dp658
g61
(dp659
g69
I4
ssg70
g653
sg63
(lp660
S"set(['/home/arvin/web2py/applications/admin/', '/home/arvin/web2py/applications/welcome/', '/home/arvin/web2py/applications/examples/'])"
p661
asbasbasbag56
(g72
g58
NtRp662
(dp663
g61
(dp664
sg70
g636
sg63
(lp665
g56
(g77
g58
NtRp666
(dp667
g61
(dp668
g81
g82
ssg70
g662
sg63
(lp669
S'applications_parent'
p670
asbag56
(g77
g58
NtRp671
(dp672
g61
(dp673
g88
g89
ssg70
g662
sg63
(lp674
S':'
asbag56
(g77
g58
NtRp675
(dp676
g61
(dp677
sg70
g662
sg63
(lp678
g56
(g57
g58
NtRp679
(dp680
g61
(dp681
g69
I4
ssg70
g675
sg63
(lp682
S'/home/arvin/web2py'
p683
asbasbasbag56
(g72
g58
NtRp684
(dp685
g61
(dp686
sg70
g636
sg63
(lp687
g56
(g77
g58
NtRp688
(dp689
g61
(dp690
g81
g82
ssg70
g684
sg63
(lp691
S'content_length'
p692
asbag56
(g77
g58
NtRp693
(dp694
g61
(dp695
g88
g89
ssg70
g684
sg63
(lp696
S':'
asbag56
(g77
g58
NtRp697
(dp698
g61
(dp699
sg70
g684
sg63
(lp700
g56
(g57
g58
NtRp701
(dp702
g61
(dp703
g69
I4
ssg70
g697
sg63
(lp704
S''
asbasbasbag56
(g72
g58
NtRp705
(dp706
g61
(dp707
sg70
g636
sg63
(lp708
g56
(g77
g58
NtRp709
(dp710
g61
(dp711
g81
g82
ssg70
g705
sg63
(lp712
S'content_type'
p713
asbag56
(g77
g58
NtRp714
(dp715
g61
(dp716
g88
g89
ssg70
g705
sg63
(lp717
S':'
asbag56
(g77
g58
NtRp718
(dp719
g61
(dp720
sg70
g705
sg63
(lp721
g56
(g57
g58
NtRp722
(dp723
g61
(dp724
g69
I4
ssg70
g718
sg63
(lp725
S''
asbasbasbag56
(g72
g58
NtRp726
(dp727
g61
(dp728
sg70
g636
sg63
(lp729
g56
(g77
g58
NtRp730
(dp731
g61
(dp732
g81
g82
ssg70
g726
sg63
(lp733
S'db_sessions'
p734
asbag56
(g77
g58
NtRp735
(dp736
g61
(dp737
g88
g89
ssg70
g726
sg63
(lp738
S':'
asbag56
(g77
g58
NtRp739
(dp740
g61
(dp741
sg70
g726
sg63
(lp742
g56
(g57
g58
NtRp743
(dp744
g61
(dp745
g69
I4
ssg70
g739
sg63
(lp746
S'set([])'
p747
asbasbasbag56
(g72
g58
NtRp748
(dp749
g61
(dp750
sg70
g636
sg63
(lp751
g56
(g77
g58
NtRp752
(dp753
g61
(dp754
g81
g82
ssg70
g748
sg63
(lp755
S'debugging'
p756
asbag56
(g77
g58
NtRp757
(dp758
g61
(dp759
g88
g89
ssg70
g748
sg63
(lp760
S':'
asbag56
(g77
g58
NtRp761
(dp762
g61
(dp763
sg70
g748
sg63
(lp764
g56
(g57
g58
NtRp765
(dp766
g61
(dp767
g69
I4
ssg70
g761
sg63
(lp768
g99
asbasbasbag56
(g72
g58
NtRp769
(dp770
g61
(dp771
sg70
g636
sg63
(lp772
g56
(g77
g58
NtRp773
(dp774
g61
(dp775
g81
g82
ssg70
g769
sg63
(lp776
S'document_root'
p777
asbag56
(g77
g58
NtRp778
(dp779
g61
(dp780
g88
g89
ssg70
g769
sg63
(lp781
S':'
asbag56
(g77
g58
NtRp782
(dp783
g61
(dp784
sg70
g769
sg63
(lp785
g56
(g57
g58
NtRp786
(dp787
g61
(dp788
g69
I4
ssg70
g782
sg63
(lp789
S'/usr/local/nginx/html'
p790
asbasbasbag56
(g72
g58
NtRp791
(dp792
g61
(dp793
sg70
g636
sg63
(lp794
g56
(g77
g58
NtRp795
(dp796
g61
(dp797
g81
g82
ssg70
g791
sg63
(lp798
S'gluon_parent'
p799
asbag56
(g77
g58
NtRp800
(dp801
g61
(dp802
g88
g89
ssg70
g791
sg63
(lp803
S':'
asbag56
(g77
g58
NtRp804
(dp805
g61
(dp806
sg70
g791
sg63
(lp807
g56
(g57
g58
NtRp808
(dp809
g61
(dp810
g69
I4
ssg70
g804
sg63
(lp811
g683
asbasbasbag56
(g72
g58
NtRp812
(dp813
g61
(dp814
sg70
g636
sg63
(lp815
g56
(g77
g58
NtRp816
(dp817
g61
(dp818
g81
g82
ssg70
g812
sg63
(lp819
S'http_accept'
p820
asbag56
(g77
g58
NtRp821
(dp822
g61
(dp823
g88
g89
ssg70
g812
sg63
(lp824
S':'
asbag56
(g77
g58
NtRp825
(dp826
g61
(dp827
sg70
g812
sg63
(lp828
g56
(g57
g58
NtRp829
(dp830
g61
(dp831
g69
I4
ssg70
g825
sg63
(lp832
S'text/html,application/xhtml+xml,application/xml;q=0.9,*/*;q=0.8'
p833
asbasbasbag56
(g72
g58
NtRp834
(dp835
g61
(dp836
sg70
g636
sg63
(lp837
g56
(g77
g58
NtRp838
(dp839
g61
(dp840
g81
g82
ssg70
g834
sg63
(lp841
S'http_accept_charset'
p842
asbag56
(g77
g58
NtRp843
(dp844
g61
(dp845
g88
g89
ssg70
g834
sg63
(lp846
S':'
asbag56
(g77
g58
NtRp847
(dp848
g61
(dp849
sg70
g834
sg63
(lp850
g56
(g57
g58
NtRp851
(dp852
g61
(dp853
g69
I4
ssg70
g847
sg63
(lp854
S'ISO-8859-1,utf-8;q=0.7,*;q=0.7'
p855
asbasbasbag56
(g72
g58
NtRp856
(dp857
g61
(dp858
sg70
g636
sg63
(lp859
g56
(g77
g58
NtRp860
(dp861
g61
(dp862
g81
g82
ssg70
g856
sg63
(lp863
S'http_accept_encoding'
p864
asbag56
(g77
g58
NtRp865
(dp866
g61
(dp867
g88
g89
ssg70
g856
sg63
(lp868
S':'
asbag56
(g77
g58
NtRp869
(dp870
g61
(dp871
sg70
g856
sg63
(lp872
g56
(g57
g58
NtRp873
(dp874
g61
(dp875
g69
I4
ssg70
g869
sg63
(lp876
S'gzip, deflate'
p877
asbasbasbag56
(g72
g58
NtRp878
(dp879
g61
(dp880
sg70
g636
sg63
(lp881
g56
(g77
g58
NtRp882
(dp883
g61
(dp884
g81
g82
ssg70
g878
sg63
(lp885
S'http_accept_language'
p886
asbag56
(g77
g58
NtRp887
(dp888
g61
(dp889
g88
g89
ssg70
g878
sg63
(lp890
S':'
asbag56
(g77
g58
NtRp891
(dp892
g61
(dp893
sg70
g878
sg63
(lp894
g56
(g57
g58
NtRp895
(dp896
g61
(dp897
g69
I4
ssg70
g891
sg63
(lp898
S'en-us,en;q=0.5'
p899
asbasbasbag56
(g72
g58
NtRp900
(dp901
g61
(dp902
sg70
g636
sg63
(lp903
g56
(g77
g58
NtRp904
(dp905
g61
(dp906
g81
g82
ssg70
g900
sg63
(lp907
S'http_connection'
p908
asbag56
(g77
g58
NtRp909
(dp910
g61
(dp911
g88
g89
ssg70
g900
sg63
(lp912
S':'
asbag56
(g77
g58
NtRp913
(dp914
g61
(dp915
sg70
g900
sg63
(lp916
g56
(g57
g58
NtRp917
(dp918
g61
(dp919
g69
I4
ssg70
g913
sg63
(lp920
S'keep-alive'
p921
asbasbasbag56
(g72
g58
NtRp922
(dp923
g61
(dp924
sg70
g636
sg63
(lp925
g56
(g77
g58
NtRp926
(dp927
g61
(dp928
g81
g82
ssg70
g922
sg63
(lp929
S'http_cookie'
p930
asbag56
(g77
g58
NtRp931
(dp932
g61
(dp933
g88
g89
ssg70
g922
sg63
(lp934
S':'
asbag56
(g77
g58
NtRp935
(dp936
g61
(dp937
sg70
g922
sg63
(lp938
g56
(g57
g58
NtRp939
(dp940
g61
(dp941
g69
I4
ssg70
g935
sg63
(lp942
S'__utma=159863860.1937463137.1307715134.1308586258.1308598504.25; __utmz=159863860.1307715134.1.1.utmcsr=(direct)|utmccn=(direct)|utmcmd=(none); session_id_init=186.32.48.60-302c03b0-d800-439d-9ea0-600a4ab492a9; session_id_admin=186.32.48.60-cf518a5d-2337-45cf-9e57-dadf486628d0'
p943
asbasbasbag56
(g72
g58
NtRp944
(dp945
g61
(dp946
sg70
g636
sg63
(lp947
g56
(g77
g58
NtRp948
(dp949
g61
(dp950
g81
g82
ssg70
g944
sg63
(lp951
S'http_host'
p952
asbag56
(g77
g58
NtRp953
(dp954
g61
(dp955
g88
g89
ssg70
g944
sg63
(lp956
S':'
asbag56
(g77
g58
NtRp957
(dp958
g61
(dp959
sg70
g944
sg63
(lp960
g56
(g57
g58
NtRp961
(dp962
g61
(dp963
g69
I4
ssg70
g957
sg63
(lp964
S'a.xchg.com'
p965
asbasbasbag56
(g72
g58
NtRp966
(dp967
g61
(dp968
sg70
g636
sg63
(lp969
g56
(g77
g58
NtRp970
(dp971
g61
(dp972
g81
g82
ssg70
g966
sg63
(lp973
S'http_keep_alive'
p974
asbag56
(g77
g58
NtRp975
(dp976
g61
(dp977
g88
g89
ssg70
g966
sg63
(lp978
S':'
asbag56
(g77
g58
NtRp979
(dp980
g61
(dp981
sg70
g966
sg63
(lp982
g56
(g57
g58
NtRp983
(dp984
g61
(dp985
g69
I4
ssg70
g979
sg63
(lp986
S'115'
p987
asbasbasbag56
(g72
g58
NtRp988
(dp989
g61
(dp990
sg70
g636
sg63
(lp991
g56
(g77
g58
NtRp992
(dp993
g61
(dp994
g81
g82
ssg70
g988
sg63
(lp995
S'http_user_agent'
p996
asbag56
(g77
g58
NtRp997
(dp998
g61
(dp999
g88
g89
ssg70
g988
sg63
(lp1000
S':'
asbag56
(g77
g58
NtRp1001
(dp1002
g61
(dp1003
sg70
g988
sg63
(lp1004
g56
(g57
g58
NtRp1005
(dp1006
g61
(dp1007
g69
I4
ssg70
g1001
sg63
(lp1008
S'Mozilla/5.0 (Windows NT 6.1; WOW64; rv:2.0.1) Gecko/20100101 Firefox/4.0.1'
p1009
asbasbasbag56
(g72
g58
NtRp1010
(dp1011
g61
(dp1012
sg70
g636
sg63
(lp1013
g56
(g77
g58
NtRp1014
(dp1015
g61
(dp1016
g81
g82
ssg70
g1010
sg63
(lp1017
S'https'
p1018
asbag56
(g77
g58
NtRp1019
(dp1020
g61
(dp1021
g88
g89
ssg70
g1010
sg63
(lp1022
S':'
asbag56
(g77
g58
NtRp1023
(dp1024
g61
(dp1025
sg70
g1010
sg63
(lp1026
g56
(g57
g58
NtRp1027
(dp1028
g61
(dp1029
g69
I4
ssg70
g1023
sg63
(lp1030
S'on'
p1031
asbasbasbag56
(g72
g58
NtRp1032
(dp1033
g61
(dp1034
sg70
g636
sg63
(lp1035
g56
(g77
g58
NtRp1036
(dp1037
g61
(dp1038
g81
g82
ssg70
g1032
sg63
(lp1039
S'path_info'
p1040
asbag56
(g77
g58
NtRp1041
(dp1042
g61
(dp1043
g88
g89
ssg70
g1032
sg63
(lp1044
S':'
asbag56
(g77
g58
NtRp1045
(dp1046
g61
(dp1047
sg70
g1032
sg63
(lp1048
g56
(g57
g58
NtRp1049
(dp1050
g61
(dp1051
g69
I4
ssg70
g1045
sg63
(lp1052
S'/welcome/default/index'
p1053
asbasbasbag56
(g72
g58
NtRp1054
(dp1055
g61
(dp1056
sg70
g636
sg63
(lp1057
g56
(g77
g58
NtRp1058
(dp1059
g61
(dp1060
g81
g82
ssg70
g1054
sg63
(lp1061
S'query_string'
p1062
asbag56
(g77
g58
NtRp1063
(dp1064
g61
(dp1065
g88
g89
ssg70
g1054
sg63
(lp1066
S':'
asbag56
(g77
g58
NtRp1067
(dp1068
g61
(dp1069
sg70
g1054
sg63
(lp1070
g56
(g57
g58
NtRp1071
(dp1072
g61
(dp1073
g69
I4
ssg70
g1067
sg63
(lp1074
S''
asbasbasbag56
(g72
g58
NtRp1075
(dp1076
g61
(dp1077
sg70
g636
sg63
(lp1078
g56
(g77
g58
NtRp1079
(dp1080
g61
(dp1081
g81
g82
ssg70
g1075
sg63
(lp1082
S'remote_addr'
p1083
asbag56
(g77
g58
NtRp1084
(dp1085
g61
(dp1086
g88
g89
ssg70
g1075
sg63
(lp1087
S':'
asbag56
(g77
g58
NtRp1088
(dp1089
g61
(dp1090
sg70
g1075
sg63
(lp1091
g56
(g57
g58
NtRp1092
(dp1093
g61
(dp1094
g69
I4
ssg70
g1088
sg63
(lp1095
g189
asbasbasbag56
(g72
g58
NtRp1096
(dp1097
g61
(dp1098
sg70
g636
sg63
(lp1099
g56
(g77
g58
NtRp1100
(dp1101
g61
(dp1102
g81
g82
ssg70
g1096
sg63
(lp1103
S'remote_port'
p1104
asbag56
(g77
g58
NtRp1105
(dp1106
g61
(dp1107
g88
g89
ssg70
g1096
sg63
(lp1108
S':'
asbag56
(g77
g58
NtRp1109
(dp1110
g61
(dp1111
sg70
g1096
sg63
(lp1112
g56
(g57
g58
NtRp1113
(dp1114
g61
(dp1115
g69
I4
ssg70
g1109
sg63
(lp1116
S'62649'
p1117
asbasbasbag56
(g72
g58
NtRp1118
(dp1119
g61
(dp1120
sg70
g636
sg63
(lp1121
g56
(g77
g58
NtRp1122
(dp1123
g61
(dp1124
g81
g82
ssg70
g1118
sg63
(lp1125
S'request_method'
p1126
asbag56
(g77
g58
NtRp1127
(dp1128
g61
(dp1129
g88
g89
ssg70
g1118
sg63
(lp1130
S':'
asbag56
(g77
g58
NtRp1131
(dp1132
g61
(dp1133
sg70
g1118
sg63
(lp1134
g56
(g57
g58
NtRp1135
(dp1136
g61
(dp1137
g69
I4
ssg70
g1131
sg63
(lp1138
S'GET'
p1139
asbasbasbag56
(g72
g58
NtRp1140
(dp1141
g61
(dp1142
sg70
g636
sg63
(lp1143
g56
(g77
g58
NtRp1144
(dp1145
g61
(dp1146
g81
g82
ssg70
g1140
sg63
(lp1147
S'request_uri'
p1148
asbag56
(g77
g58
NtRp1149
(dp1150
g61
(dp1151
g88
g89
ssg70
g1140
sg63
(lp1152
S':'
asbag56
(g77
g58
NtRp1153
(dp1154
g61
(dp1155
sg70
g1140
sg63
(lp1156
g56
(g57
g58
NtRp1157
(dp1158
g61
(dp1159
g69
I4
ssg70
g1153
sg63
(lp1160
S'/welcome/default/index'
p1161
asbasbasbag56
(g72
g58
NtRp1162
(dp1163
g61
(dp1164
sg70
g636
sg63
(lp1165
g56
(g77
g58
NtRp1166
(dp1167
g61
(dp1168
g81
g82
ssg70
g1162
sg63
(lp1169
S'server_name'
p1170
asbag56
(g77
g58
NtRp1171
(dp1172
g61
(dp1173
g88
g89
ssg70
g1162
sg63
(lp1174
S':'
asbag56
(g77
g58
NtRp1175
(dp1176
g61
(dp1177
sg70
g1162
sg63
(lp1178
g56
(g57
g58
NtRp1179
(dp1180
g61
(dp1181
g69
I4
ssg70
g1175
sg63
(lp1182
S'a.xchg.com'
p1183
asbasbasbag56
(g72
g58
NtRp1184
(dp1185
g61
(dp1186
sg70
g636
sg63
(lp1187
g56
(g77
g58
NtRp1188
(dp1189
g61
(dp1190
g81
g82
ssg70
g1184
sg63
(lp1191
S'server_port'
p1192
asbag56
(g77
g58
NtRp1193
(dp1194
g61
(dp1195
g88
g89
ssg70
g1184
sg63
(lp1196
S':'
asbag56
(g77
g58
NtRp1197
(dp1198
g61
(dp1199
sg70
g1184
sg63
(lp1200
g56
(g57
g58
NtRp1201
(dp1202
g61
(dp1203
g69
I4
ssg70
g1197
sg63
(lp1204
S'443'
p1205
asbasbasbag56
(g72
g58
NtRp1206
(dp1207
g61
(dp1208
sg70
g636
sg63
(lp1209
g56
(g77
g58
NtRp1210
(dp1211
g61
(dp1212
g81
g82
ssg70
g1206
sg63
(lp1213
S'server_protocol'
p1214
asbag56
(g77
g58
NtRp1215
(dp1216
g61
(dp1217
g88
g89
ssg70
g1206
sg63
(lp1218
S':'
asbag56
(g77
g58
NtRp1219
(dp1220
g61
(dp1221
sg70
g1206
sg63
(lp1222
g56
(g57
g58
NtRp1223
(dp1224
g61
(dp1225
g69
I4
ssg70
g1219
sg63
(lp1226
S'HTTP/1.1'
p1227
asbasbasbag56
(g72
g58
NtRp1228
(dp1229
g61
(dp1230
sg70
g636
sg63
(lp1231
g56
(g77
g58
NtRp1232
(dp1233
g61
(dp1234
g81
g82
ssg70
g1228
sg63
(lp1235
S'uwsgi_version'
p1236
asbag56
(g77
g58
NtRp1237
(dp1238
g61
(dp1239
g88
g89
ssg70
g1228
sg63
(lp1240
S':'
asbag56
(g77
g58
NtRp1241
(dp1242
g61
(dp1243
sg70
g1228
sg63
(lp1244
g56
(g57
g58
NtRp1245
(dp1246
g61
(dp1247
g69
I4
ssg70
g1241
sg63
(lp1248
S'0.9.6.8'
p1249
asbasbasbag56
(g72
g58
NtRp1250
(dp1251
g61
(dp1252
sg70
g636
sg63
(lp1253
g56
(g77
g58
NtRp1254
(dp1255
g61
(dp1256
g81
g82
ssg70
g1250
sg63
(lp1257
S'web2py_path'
p1258
asbag56
(g77
g58
NtRp1259
(dp1260
g61
(dp1261
g88
g89
ssg70
g1250
sg63
(lp1262
S':'
asbag56
(g77
g58
NtRp1263
(dp1264
g61
(dp1265
sg70
g1250
sg63
(lp1266
g56
(g57
g58
NtRp1267
(dp1268
g61
(dp1269
g69
I4
ssg70
g1263
sg63
(lp1270
g683
asbasbasbag56
(g72
g58
NtRp1271
(dp1272
g61
(dp1273
sg70
g636
sg63
(lp1274
g56
(g77
g58
NtRp1275
(dp1276
g61
(dp1277
g81
g82
ssg70
g1271
sg63
(lp1278
S'web2py_version'
p1279
asbag56
(g77
g58
NtRp1280
(dp1281
g61
(dp1282
g88
g89
ssg70
g1271
sg63
(lp1283
S':'
asbag56
(g77
g58
NtRp1284
(dp1285
g61
(dp1286
sg70
g1271
sg63
(lp1287
g56
(g57
g58
NtRp1288
(dp1289
g61
(dp1290
g69
I4
ssg70
g1284
sg63
(lp1291
S'Version 1.96.4 (2011-06-15 22:09:34)\n'
p1292
asbasbasbag56
(g72
g58
NtRp1293
(dp1294
g61
(dp1295
sg70
g636
sg63
(lp1296
g56
(g77
g58
NtRp1297
(dp1298
g61
(dp1299
g81
g82
ssg70
g1293
sg63
(lp1300
S'wsgi_errors'
p1301
asbag56
(g77
g58
NtRp1302
(dp1303
g61
(dp1304
g88
g89
ssg70
g1293
sg63
(lp1305
S':'
asbag56
(g77
g58
NtRp1306
(dp1307
g61
(dp1308
sg70
g1293
sg63
(lp1309
g56
(g57
g58
NtRp1310
(dp1311
g61
(dp1312
g69
I4
ssg70
g1306
sg63
(lp1313
S"<open file 'wsgi_input', mode 'w' at 0x89f0c80>"
p1314
asbasbasbag56
(g72
g58
NtRp1315
(dp1316
g61
(dp1317
sg70
g636
sg63
(lp1318
g56
(g77
g58
NtRp1319
(dp1320
g61
(dp1321
g81
g82
ssg70
g1315
sg63
(lp1322
S'wsgi_file_wrapper'
p1323
asbag56
(g77
g58
NtRp1324
(dp1325
g61
(dp1326
g88
g89
ssg70
g1315
sg63
(lp1327
S':'
asbag56
(g77
g58
NtRp1328
(dp1329
g61
(dp1330
sg70
g1315
sg63
(lp1331
g56
(g57
g58
NtRp1332
(dp1333
g61
(dp1334
g69
I4
ssg70
g1328
sg63
(lp1335
S'<built-in function uwsgi_sendfile>'
p1336
asbasbasbag56
(g72
g58
NtRp1337
(dp1338
g61
(dp1339
sg70
g636
sg63
(lp1340
g56
(g77
g58
NtRp1341
(dp1342
g61
(dp1343
g81
g82
ssg70
g1337
sg63
(lp1344
S'wsgi_input'
p1345
asbag56
(g77
g58
NtRp1346
(dp1347
g61
(dp1348
g88
g89
ssg70
g1337
sg63
(lp1349
S':'
asbag56
(g77
g58
NtRp1350
(dp1351
g61
(dp1352
sg70
g1337
sg63
(lp1353
g56
(g57
g58
NtRp1354
(dp1355
g61
(dp1356
g69
I4
ssg70
g1350
sg63
(lp1357
S"<open file 'wsgi_input', mode 'r' at 0x89e25a0>"
p1358
asbasbasbag56
(g72
g58
NtRp1359
(dp1360
g61
(dp1361
sg70
g636
sg63
(lp1362
g56
(g77
g58
NtRp1363
(dp1364
g61
(dp1365
g81
g82
ssg70
g1359
sg63
(lp1366
S'wsgi_multiprocess'
p1367
asbag56
(g77
g58
NtRp1368
(dp1369
g61
(dp1370
g88
g89
ssg70
g1359
sg63
(lp1371
S':'
asbag56
(g77
g58
NtRp1372
(dp1373
g61
(dp1374
sg70
g1359
sg63
(lp1375
g56
(g57
g58
NtRp1376
(dp1377
g61
(dp1378
g69
I4
ssg70
g1372
sg63
(lp1379
g99
asbasbasbag56
(g72
g58
NtRp1380
(dp1381
g61
(dp1382
sg70
g636
sg63
(lp1383
g56
(g77
g58
NtRp1384
(dp1385
g61
(dp1386
g81
g82
ssg70
g1380
sg63
(lp1387
S'wsgi_multithread'
p1388
asbag56
(g77
g58
NtRp1389
(dp1390
g61
(dp1391
g88
g89
ssg70
g1380
sg63
(lp1392
S':'
asbag56
(g77
g58
NtRp1393
(dp1394
g61
(dp1395
sg70
g1380
sg63
(lp1396
g56
(g57
g58
NtRp1397
(dp1398
g61
(dp1399
g69
I4
ssg70
g1393
sg63
(lp1400
g99
asbasbasbag56
(g72
g58
NtRp1401
(dp1402
g61
(dp1403
sg70
g636
sg63
(lp1404
g56
(g77
g58
NtRp1405
(dp1406
g61
(dp1407
g81
g82
ssg70
g1401
sg63
(lp1408
S'wsgi_run_once'
p1409
asbag56
(g77
g58
NtRp1410
(dp1411
g61
(dp1412
g88
g89
ssg70
g1401
sg63
(lp1413
S':'
asbag56
(g77
g58
NtRp1414
(dp1415
g61
(dp1416
sg70
g1401
sg63
(lp1417
g56
(g57
g58
NtRp1418
(dp1419
g61
(dp1420
g69
I4
ssg70
g1414
sg63
(lp1421
g99
asbasbasbag56
(g72
g58
NtRp1422
(dp1423
g61
(dp1424
sg70
g636
sg63
(lp1425
g56
(g77
g58
NtRp1426
(dp1427
g61
(dp1428
g81
g82
ssg70
g1422
sg63
(lp1429
S'wsgi_url_scheme'
p1430
asbag56
(g77
g58
NtRp1431
(dp1432
g61
(dp1433
g88
g89
ssg70
g1422
sg63
(lp1434
S':'
asbag56
(g77
g58
NtRp1435
(dp1436
g61
(dp1437
sg70
g1422
sg63
(lp1438
g56
(g57
g58
NtRp1439
(dp1440
g61
(dp1441
g69
I4
ssg70
g1435
sg63
(lp1442
S'https'
p1443
asbasbasbag56
(g72
g58
NtRp1444
(dp1445
g61
(dp1446
sg70
g636
sg63
(lp1447
g56
(g77
g58
NtRp1448
(dp1449
g61
(dp1450
g81
g82
ssg70
g1444
sg63
(lp1451
S'wsgi_version'
p1452
asbag56
(g77
g58
NtRp1453
(dp1454
g61
(dp1455
g88
g89
ssg70
g1444
sg63
(lp1456
S':'
asbag56
(g77
g58
NtRp1457
(dp1458
g61
(dp1459
sg70
g1444
sg63
(lp1460
g56
(g57
g58
NtRp1461
(dp1462
g61
(dp1463
g69
I4
ssg70
g1457
sg63
(lp1464
g56
(g65
g58
NtRp1465
(dp1466
g61
(dp1467
g69
I3
ssg70
Nsg63
(lp1468
g56
(g72
g58
NtRp1469
(dp1470
g61
(dp1471
sg70
g1465
sg63
(lp1472
g56
(g77
g58
NtRp1473
(dp1474
g61
(dp1475
sg70
g1469
sg63
(lp1476
g56
(g57
g58
NtRp1477
(dp1478
g61
(dp1479
g69
I3
ssg70
g1473
sg63
(lp1480
S'1'
asbasbasbag56
(g72
g58
NtRp1481
(dp1482
g61
(dp1483
sg70
g1465
sg63
(lp1484
g56
(g77
g58
NtRp1485
(dp1486
g61
(dp1487
sg70
g1481
sg63
(lp1488
g56
(g57
g58
NtRp1489
(dp1490
g61
(dp1491
g69
I3
ssg70
g1485
sg63
(lp1492
S'0'
asbasbasbasbasbasbasbasbasbasbasbag56
(g72
g58
NtRp1493
(dp1494
g61
(dp1495
sg70
g66
sg63
(lp1496
g56
(g77
g58
NtRp1497
(dp1498
g61
(dp1499
g81
g82
ssg70
g1493
sg63
(lp1500
S'extension'
p1501
asbag56
(g77
g58
NtRp1502
(dp1503
g61
(dp1504
g88
g89
ssg70
g1493
sg63
(lp1505
S':'
asbag56
(g77
g58
NtRp1506
(dp1507
g61
(dp1508
sg70
g1493
sg63
(lp1509
g56
(g57
g58
NtRp1510
(dp1511
g61
(dp1512
g69
I5
ssg70
g1506
sg63
(lp1513
S'html'
p1514
asbasbasbag56
(g72
g58
NtRp1515
(dp1516
g61
(dp1517
sg70
g66
sg63
(lp1518
g56
(g77
g58
NtRp1519
(dp1520
g61
(dp1521
g81
g82
ssg70
g1515
sg63
(lp1522
S'folder'
p1523
asbag56
(g77
g58
NtRp1524
(dp1525
g61
(dp1526
g88
g89
ssg70
g1515
sg63
(lp1527
S':'
asbag56
(g77
g58
NtRp1528
(dp1529
g61
(dp1530
sg70
g1515
sg63
(lp1531
g56
(g57
g58
NtRp1532
(dp1533
g61
(dp1534
g69
I5
ssg70
g1528
sg63
(lp1535
S'/home/arvin/web2py/applications/welcome/'
p1536
asbasbasbag56
(g72
g58
NtRp1537
(dp1538
g61
(dp1539
sg70
g66
sg63
(lp1540
g56
(g77
g58
NtRp1541
(dp1542
g61
(dp1543
g81
g82
ssg70
g1537
sg63
(lp1544
S'function'
p1545
asbag56
(g77
g58
NtRp1546
(dp1547
g61
(dp1548
g88
g89
ssg70
g1537
sg63
(lp1549
S':'
asbag56
(g77
g58
NtRp1550
(dp1551
g61
(dp1552
sg70
g1537
sg63
(lp1553
g56
(g57
g58
NtRp1554
(dp1555
g61
(dp1556
g69
I5
ssg70
g1550
sg63
(lp1557
S'index'
p1558
asbasbasbag56
(g72
g58
NtRp1559
(dp1560
g61
(dp1561
sg70
g66
sg63
(lp1562
g56
(g77
g58
NtRp1563
(dp1564
g61
(dp1565
g81
g82
ssg70
g1559
sg63
(lp1566
S'get_vars'
p1567
asbag56
(g77
g58
NtRp1568
(dp1569
g61
(dp1570
g88
g89
ssg70
g1559
sg63
(lp1571
S':'
asbag56
(g77
g58
NtRp1572
(dp1573
g61
(dp1574
sg70
g1559
sg63
(lp1575
g56
(g57
g58
NtRp1576
(dp1577
g61
(dp1578
g69
I5
ssg70
g1572
sg63
(lp1579
g56
(g65
g58
NtRp1580
(dp1581
g61
(dp1582
g69
I4
ssg70
Nsg63
(lp1583
sbasbasbasbag56
(g72
g58
NtRp1584
(dp1585
g61
(dp1586
sg70
g66
sg63
(lp1587
g56
(g77
g58
NtRp1588
(dp1589
g61
(dp1590
g81
g82
ssg70
g1584
sg63
(lp1591
S'is_https'
p1592
asbag56
(g77
g58
NtRp1593
(dp1594
g61
(dp1595
g88
g89
ssg70
g1584
sg63
(lp1596
S':'
asbag56
(g77
g58
NtRp1597
(dp1598
g61
(dp1599
sg70
g1584
sg63
(lp1600
g56
(g57
g58
NtRp1601
(dp1602
g61
(dp1603
g69
I5
ssg70
g1597
sg63
(lp1604
S'True'
p1605
asbasbasbag56
(g72
g58
NtRp1606
(dp1607
g61
(dp1608
sg70
g66
sg63
(lp1609
g56
(g77
g58
NtRp1610
(dp1611
g61
(dp1612
g81
g82
ssg70
g1606
sg63
(lp1613
S'is_local'
p1614
asbag56
(g77
g58
NtRp1615
(dp1616
g61
(dp1617
g88
g89
ssg70
g1606
sg63
(lp1618
S':'
asbag56
(g77
g58
NtRp1619
(dp1620
g61
(dp1621
sg70
g1606
sg63
(lp1622
g56
(g57
g58
NtRp1623
(dp1624
g61
(dp1625
g69
I5
ssg70
g1619
sg63
(lp1626
g99
asbasbasbag56
(g72
g58
NtRp1627
(dp1628
g61
(dp1629
sg70
g66
sg63
(lp1630
g56
(g77
g58
NtRp1631
(dp1632
g61
(dp1633
g81
g82
ssg70
g1627
sg63
(lp1634
S'is_restful'
p1635
asbag56
(g77
g58
NtRp1636
(dp1637
g61
(dp1638
g88
g89
ssg70
g1627
sg63
(lp1639
S':'
asbag56
(g77
g58
NtRp1640
(dp1641
g61
(dp1642
sg70
g1627
sg63
(lp1643
g56
(g57
g58
NtRp1644
(dp1645
g61
(dp1646
g69
I5
ssg70
g1640
sg63
(lp1647
g99
asbasbasbag56
(g72
g58
NtRp1648
(dp1649
g61
(dp1650
sg70
g66
sg63
(lp1651
g56
(g77
g58
NtRp1652
(dp1653
g61
(dp1654
g81
g82
ssg70
g1648
sg63
(lp1655
S'now'
p1656
asbag56
(g77
g58
NtRp1657
(dp1658
g61
(dp1659
g88
g89
ssg70
g1648
sg63
(lp1660
S':'
asbag56
(g77
g58
NtRp1661
(dp1662
g61
(dp1663
sg70
g1648
sg63
(lp1664
g56
(g57
g58
NtRp1665
(dp1666
g61
(dp1667
g69
I5
ssg70
g1661
sg63
(lp1668
S'datetime.datetime(2011, 6, 21, 13, 48, 37, 657361)'
p1669
asbasbasbag56
(g72
g58
NtRp1670
(dp1671
g61
(dp1672
sg70
g66
sg63
(lp1673
g56
(g77
g58
NtRp1674
(dp1675
g61
(dp1676
g81
g82
ssg70
g1670
sg63
(lp1677
S'post_vars'
p1678
asbag56
(g77
g58
NtRp1679
(dp1680
g61
(dp1681
g88
g89
ssg70
g1670
sg63
(lp1682
S':'
asbag56
(g77
g58
NtRp1683
(dp1684
g61
(dp1685
sg70
g1670
sg63
(lp1686
g56
(g57
g58
NtRp1687
(dp1688
g61
(dp1689
g69
I5
ssg70
g1683
sg63
(lp1690
g56
(g65
g58
NtRp1691
(dp1692
g61
(dp1693
g69
I4
ssg70
Nsg63
(lp1694
sbasbasbasbag56
(g72
g58
NtRp1695
(dp1696
g61
(dp1697
sg70
g66
sg63
(lp1698
g56
(g77
g58
NtRp1699
(dp1700
g61
(dp1701
g81
g82
ssg70
g1695
sg63
(lp1702
S'url'
p1703
asbag56
(g77
g58
NtRp1704
(dp1705
g61
(dp1706
g88
g89
ssg70
g1695
sg63
(lp1707
S':'
asbag56
(g77
g58
NtRp1708
(dp1709
g61
(dp1710
sg70
g1695
sg63
(lp1711
g56
(g57
g58
NtRp1712
(dp1713
g61
(dp1714
g69
I5
ssg70
g1708
sg63
(lp1715
S'/welcome/default/index'
p1716
asbasbasbag56
(g72
g58
NtRp1717
(dp1718
g61
(dp1719
sg70
g66
sg63
(lp1720
g56
(g77
g58
NtRp1721
(dp1722
g61
(dp1723
g81
g82
ssg70
g1717
sg63
(lp1724
S'uuid'
p1725
asbag56
(g77
g58
NtRp1726
(dp1727
g61
(dp1728
g88
g89
ssg70
g1717
sg63
(lp1729
S':'
asbag56
(g77
g58
NtRp1730
(dp1731
g61
(dp1732
sg70
g1717
sg63
(lp1733
g56
(g57
g58
NtRp1734
(dp1735
g61
(dp1736
g69
I5
ssg70
g1730
sg63
(lp1737
S'welcome/186.32.48.60.2011-06-21.13-48-37.29de2e10-0abb-4b82-8e04-6f6574548751'
p1738
asbasbasbag56
(g72
g58
NtRp1739
(dp1740
g61
(dp1741
sg70
g66
sg63
(lp1742
g56
(g77
g58
NtRp1743
(dp1744
g61
(dp1745
g81
g82
ssg70
g1739
sg63
(lp1746
S'vars'
p1747
asbag56
(g77
g58
NtRp1748
(dp1749
g61
(dp1750
g88
g89
ssg70
g1739
sg63
(lp1751
S':'
asbag56
(g77
g58
NtRp1752
(dp1753
g61
(dp1754
sg70
g1739
sg63
(lp1755
g56
(g57
g58
NtRp1756
(dp1757
g61
(dp1758
g69
I5
ssg70
g1752
sg63
(lp1759
g56
(g65
g58
NtRp1760
(dp1761
g61
(dp1762
g69
I4
ssg70
Nsg63
(lp1763
sbasbasbasbag56
(g72
g58
NtRp1764
(dp1765
g61
(dp1766
sg70
g66
sg63
(lp1767
g56
(g77
g58
NtRp1768
(dp1769
g61
(dp1770
g81
g82
ssg70
g1764
sg63
(lp1771
S'wsgi'
p1772
asbag56
(g77
g58
NtRp1773
(dp1774
g61
(dp1775
g88
g89
ssg70
g1764
sg63
(lp1776
S':'
asbag56
(g77
g58
NtRp1777
(dp1778
g61
(dp1779
sg70
g1764
sg63
(lp1780
g56
(g57
g58
NtRp1781
(dp1782
g61
(dp1783
g69
I5
ssg70
g1777
sg63
(lp1784
g56
(g65
g58
NtRp1785
(dp1786
g61
(dp1787
g69
I4
ssg70
Nsg63
(lp1788
g56
(g72
g58
NtRp1789
(dp1790
g61
(dp1791
sg70
g1785
sg63
(lp1792
g56
(g77
g58
NtRp1793
(dp1794
g61
(dp1795
g81
g82
ssg70
g1789
sg63
(lp1796
S'environ'
p1797
asbag56
(g77
g58
NtRp1798
(dp1799
g61
(dp1800
g88
g89
ssg70
g1789
sg63
(lp1801
S':'
asbag56
(g77
g58
NtRp1802
(dp1803
g61
(dp1804
sg70
g1789
sg63
(lp1805
g56
(g57
g58
NtRp1806
(dp1807
g61
(dp1808
g69
I4
ssg70
g1802
sg63
(lp1809
g56
(g65
g58
NtRp1810
(dp1811
g61
(dp1812
g69
I3
ssg70
Nsg63
(lp1813
g56
(g72
g58
NtRp1814
(dp1815
g61
(dp1816
sg70
g1810
sg63
(lp1817
g56
(g77
g58
NtRp1818
(dp1819
g61
(dp1820
g81
g82
ssg70
g1814
sg63
(lp1821
S'CONTENT_LENGTH'
p1822
asbag56
(g77
g58
NtRp1823
(dp1824
g61
(dp1825
g88
g89
ssg70
g1814
sg63
(lp1826
S':'
asbag56
(g77
g58
NtRp1827
(dp1828
g61
(dp1829
sg70
g1814
sg63
(lp1830
g56
(g57
g58
NtRp1831
(dp1832
g61
(dp1833
g69
I3
ssg70
g1827
sg63
(lp1834
S''
asbasbasbag56
(g72
g58
NtRp1835
(dp1836
g61
(dp1837
sg70
g1810
sg63
(lp1838
g56
(g77
g58
NtRp1839
(dp1840
g61
(dp1841
g81
g82
ssg70
g1835
sg63
(lp1842
S'CONTENT_TYPE'
p1843
asbag56
(g77
g58
NtRp1844
(dp1845
g61
(dp1846
g88
g89
ssg70
g1835
sg63
(lp1847
S':'
asbag56
(g77
g58
NtRp1848
(dp1849
g61
(dp1850
sg70
g1835
sg63
(lp1851
g56
(g57
g58
NtRp1852
(dp1853
g61
(dp1854
g69
I3
ssg70
g1848
sg63
(lp1855
S''
asbasbasbag56
(g72
g58
NtRp1856
(dp1857
g61
(dp1858
sg70
g1810
sg63
(lp1859
g56
(g77
g58
NtRp1860
(dp1861
g61
(dp1862
g81
g82
ssg70
g1856
sg63
(lp1863
S'DOCUMENT_ROOT'
p1864
asbag56
(g77
g58
NtRp1865
(dp1866
g61
(dp1867
g88
g89
ssg70
g1856
sg63
(lp1868
S':'
asbag56
(g77
g58
NtRp1869
(dp1870
g61
(dp1871
sg70
g1856
sg63
(lp1872
g56
(g57
g58
NtRp1873
(dp1874
g61
(dp1875
g69
I3
ssg70
g1869
sg63
(lp1876
g790
asbasbasbag56
(g72
g58
NtRp1877
(dp1878
g61
(dp1879
sg70
g1810
sg63
(lp1880
g56
(g77
g58
NtRp1881
(dp1882
g61
(dp1883
g81
g82
ssg70
g1877
sg63
(lp1884
S'HTTPS'
p1885
asbag56
(g77
g58
NtRp1886
(dp1887
g61
(dp1888
g88
g89
ssg70
g1877
sg63
(lp1889
S':'
asbag56
(g77
g58
NtRp1890
(dp1891
g61
(dp1892
sg70
g1877
sg63
(lp1893
g56
(g57
g58
NtRp1894
(dp1895
g61
(dp1896
g69
I3
ssg70
g1890
sg63
(lp1897
g1031
asbasbasbag56
(g72
g58
NtRp1898
(dp1899
g61
(dp1900
sg70
g1810
sg63
(lp1901
g56
(g77
g58
NtRp1902
(dp1903
g61
(dp1904
g81
g82
ssg70
g1898
sg63
(lp1905
S'HTTP_ACCEPT'
p1906
asbag56
(g77
g58
NtRp1907
(dp1908
g61
(dp1909
g88
g89
ssg70
g1898
sg63
(lp1910
S':'
asbag56
(g77
g58
NtRp1911
(dp1912
g61
(dp1913
sg70
g1898
sg63
(lp1914
g56
(g57
g58
NtRp1915
(dp1916
g61
(dp1917
g69
I3
ssg70
g1911
sg63
(lp1918
g833
asbasbasbag56
(g72
g58
NtRp1919
(dp1920
g61
(dp1921
sg70
g1810
sg63
(lp1922
g56
(g77
g58
NtRp1923
(dp1924
g61
(dp1925
g81
g82
ssg70
g1919
sg63
(lp1926
S'HTTP_ACCEPT_CHARSET'
p1927
asbag56
(g77
g58
NtRp1928
(dp1929
g61
(dp1930
g88
g89
ssg70
g1919
sg63
(lp1931
S':'
asbag56
(g77
g58
NtRp1932
(dp1933
g61
(dp1934
sg70
g1919
sg63
(lp1935
g56
(g57
g58
NtRp1936
(dp1937
g61
(dp1938
g69
I3
ssg70
g1932
sg63
(lp1939
g855
asbasbasbag56
(g72
g58
NtRp1940
(dp1941
g61
(dp1942
sg70
g1810
sg63
(lp1943
g56
(g77
g58
NtRp1944
(dp1945
g61
(dp1946
g81
g82
ssg70
g1940
sg63
(lp1947
S'HTTP_ACCEPT_ENCODING'
p1948
asbag56
(g77
g58
NtRp1949
(dp1950
g61
(dp1951
g88
g89
ssg70
g1940
sg63
(lp1952
S':'
asbag56
(g77
g58
NtRp1953
(dp1954
g61
(dp1955
sg70
g1940
sg63
(lp1956
g56
(g57
g58
NtRp1957
(dp1958
g61
(dp1959
g69
I3
ssg70
g1953
sg63
(lp1960
g877
asbasbasbag56
(g72
g58
NtRp1961
(dp1962
g61
(dp1963
sg70
g1810
sg63
(lp1964
g56
(g77
g58
NtRp1965
(dp1966
g61
(dp1967
g81
g82
ssg70
g1961
sg63
(lp1968
S'HTTP_ACCEPT_LANGUAGE'
p1969
asbag56
(g77
g58
NtRp1970
(dp1971
g61
(dp1972
g88
g89
ssg70
g1961
sg63
(lp1973
S':'
asbag56
(g77
g58
NtRp1974
(dp1975
g61
(dp1976
sg70
g1961
sg63
(lp1977
g56
(g57
g58
NtRp1978
(dp1979
g61
(dp1980
g69
I3
ssg70
g1974
sg63
(lp1981
g899
asbasbasbag56
(g72
g58
NtRp1982
(dp1983
g61
(dp1984
sg70
g1810
sg63
(lp1985
g56
(g77
g58
NtRp1986
(dp1987
g61
(dp1988
g81
g82
ssg70
g1982
sg63
(lp1989
S'HTTP_CONNECTION'
p1990
asbag56
(g77
g58
NtRp1991
(dp1992
g61
(dp1993
g88
g89
ssg70
g1982
sg63
(lp1994
S':'
asbag56
(g77
g58
NtRp1995
(dp1996
g61
(dp1997
sg70
g1982
sg63
(lp1998
g56
(g57
g58
NtRp1999
(dp2000
g61
(dp2001
g69
I3
ssg70
g1995
sg63
(lp2002
g921
asbasbasbag56
(g72
g58
NtRp2003
(dp2004
g61
(dp2005
sg70
g1810
sg63
(lp2006
g56
(g77
g58
NtRp2007
(dp2008
g61
(dp2009
g81
g82
ssg70
g2003
sg63
(lp2010
S'HTTP_COOKIE'
p2011
asbag56
(g77
g58
NtRp2012
(dp2013
g61
(dp2014
g88
g89
ssg70
g2003
sg63
(lp2015
S':'
asbag56
(g77
g58
NtRp2016
(dp2017
g61
(dp2018
sg70
g2003
sg63
(lp2019
g56
(g57
g58
NtRp2020
(dp2021
g61
(dp2022
g69
I3
ssg70
g2016
sg63
(lp2023
g943
asbasbasbag56
(g72
g58
NtRp2024
(dp2025
g61
(dp2026
sg70
g1810
sg63
(lp2027
g56
(g77
g58
NtRp2028
(dp2029
g61
(dp2030
g81
g82
ssg70
g2024
sg63
(lp2031
S'HTTP_HOST'
p2032
asbag56
(g77
g58
NtRp2033
(dp2034
g61
(dp2035
g88
g89
ssg70
g2024
sg63
(lp2036
S':'
asbag56
(g77
g58
NtRp2037
(dp2038
g61
(dp2039
sg70
g2024
sg63
(lp2040
g56
(g57
g58
NtRp2041
(dp2042
g61
(dp2043
g69
I3
ssg70
g2037
sg63
(lp2044
g965
asbasbasbag56
(g72
g58
NtRp2045
(dp2046
g61
(dp2047
sg70
g1810
sg63
(lp2048
g56
(g77
g58
NtRp2049
(dp2050
g61
(dp2051
g81
g82
ssg70
g2045
sg63
(lp2052
S'HTTP_KEEP_ALIVE'
p2053
asbag56
(g77
g58
NtRp2054
(dp2055
g61
(dp2056
g88
g89
ssg70
g2045
sg63
(lp2057
S':'
asbag56
(g77
g58
NtRp2058
(dp2059
g61
(dp2060
sg70
g2045
sg63
(lp2061
g56
(g57
g58
NtRp2062
(dp2063
g61
(dp2064
g69
I3
ssg70
g2058
sg63
(lp2065
g987
asbasbasbag56
(g72
g58
NtRp2066
(dp2067
g61
(dp2068
sg70
g1810
sg63
(lp2069
g56
(g77
g58
NtRp2070
(dp2071
g61
(dp2072
g81
g82
ssg70
g2066
sg63
(lp2073
S'HTTP_USER_AGENT'
p2074
asbag56
(g77
g58
NtRp2075
(dp2076
g61
(dp2077
g88
g89
ssg70
g2066
sg63
(lp2078
S':'
asbag56
(g77
g58
NtRp2079
(dp2080
g61
(dp2081
sg70
g2066
sg63
(lp2082
g56
(g57
g58
NtRp2083
(dp2084
g61
(dp2085
g69
I3
ssg70
g2079
sg63
(lp2086
g1009
asbasbasbag56
(g72
g58
NtRp2087
(dp2088
g61
(dp2089
sg70
g1810
sg63
(lp2090
g56
(g77
g58
NtRp2091
(dp2092
g61
(dp2093
g81
g82
ssg70
g2087
sg63
(lp2094
S'PATH_INFO'
p2095
asbag56
(g77
g58
NtRp2096
(dp2097
g61
(dp2098
g88
g89
ssg70
g2087
sg63
(lp2099
S':'
asbag56
(g77
g58
NtRp2100
(dp2101
g61
(dp2102
sg70
g2087
sg63
(lp2103
g56
(g57
g58
NtRp2104
(dp2105
g61
(dp2106
g69
I3
ssg70
g2100
sg63
(lp2107
g1053
asbasbasbag56
(g72
g58
NtRp2108
(dp2109
g61
(dp2110
sg70
g1810
sg63
(lp2111
g56
(g77
g58
NtRp2112
(dp2113
g61
(dp2114
g81
g82
ssg70
g2108
sg63
(lp2115
S'QUERY_STRING'
p2116
asbag56
(g77
g58
NtRp2117
(dp2118
g61
(dp2119
g88
g89
ssg70
g2108
sg63
(lp2120
S':'
asbag56
(g77
g58
NtRp2121
(dp2122
g61
(dp2123
sg70
g2108
sg63
(lp2124
g56
(g57
g58
NtRp2125
(dp2126
g61
(dp2127
g69
I3
ssg70
g2121
sg63
(lp2128
S''
asbasbasbag56
(g72
g58
NtRp2129
(dp2130
g61
(dp2131
sg70
g1810
sg63
(lp2132
g56
(g77
g58
NtRp2133
(dp2134
g61
(dp2135
g81
g82
ssg70
g2129
sg63
(lp2136
S'REMOTE_ADDR'
p2137
asbag56
(g77
g58
NtRp2138
(dp2139
g61
(dp2140
g88
g89
ssg70
g2129
sg63
(lp2141
S':'
asbag56
(g77
g58
NtRp2142
(dp2143
g61
(dp2144
sg70
g2129
sg63
(lp2145
g56
(g57
g58
NtRp2146
(dp2147
g61
(dp2148
g69
I3
ssg70
g2142
sg63
(lp2149
g189
asbasbasbag56
(g72
g58
NtRp2150
(dp2151
g61
(dp2152
sg70
g1810
sg63
(lp2153
g56
(g77
g58
NtRp2154
(dp2155
g61
(dp2156
g81
g82
ssg70
g2150
sg63
(lp2157
S'REMOTE_PORT'
p2158
asbag56
(g77
g58
NtRp2159
(dp2160
g61
(dp2161
g88
g89
ssg70
g2150
sg63
(lp2162
S':'
asbag56
(g77
g58
NtRp2163
(dp2164
g61
(dp2165
sg70
g2150
sg63
(lp2166
g56
(g57
g58
NtRp2167
(dp2168
g61
(dp2169
g69
I3
ssg70
g2163
sg63
(lp2170
g1117
asbasbasbag56
(g72
g58
NtRp2171
(dp2172
g61
(dp2173
sg70
g1810
sg63
(lp2174
g56
(g77
g58
NtRp2175
(dp2176
g61
(dp2177
g81
g82
ssg70
g2171
sg63
(lp2178
S'REQUEST_METHOD'
p2179
asbag56
(g77
g58
NtRp2180
(dp2181
g61
(dp2182
g88
g89
ssg70
g2171
sg63
(lp2183
S':'
asbag56
(g77
g58
NtRp2184
(dp2185
g61
(dp2186
sg70
g2171
sg63
(lp2187
g56
(g57
g58
NtRp2188
(dp2189
g61
(dp2190
g69
I3
ssg70
g2184
sg63
(lp2191
g1139
asbasbasbag56
(g72
g58
NtRp2192
(dp2193
g61
(dp2194
sg70
g1810
sg63
(lp2195
g56
(g77
g58
NtRp2196
(dp2197
g61
(dp2198
g81
g82
ssg70
g2192
sg63
(lp2199
S'REQUEST_URI'
p2200
asbag56
(g77
g58
NtRp2201
(dp2202
g61
(dp2203
g88
g89
ssg70
g2192
sg63
(lp2204
S':'
asbag56
(g77
g58
NtRp2205
(dp2206
g61
(dp2207
sg70
g2192
sg63
(lp2208
g56
(g57
g58
NtRp2209
(dp2210
g61
(dp2211
g69
I3
ssg70
g2205
sg63
(lp2212
g1161
asbasbasbag56
(g72
g58
NtRp2213
(dp2214
g61
(dp2215
sg70
g1810
sg63
(lp2216
g56
(g77
g58
NtRp2217
(dp2218
g61
(dp2219
g81
g82
ssg70
g2213
sg63
(lp2220
S'SERVER_NAME'
p2221
asbag56
(g77
g58
NtRp2222
(dp2223
g61
(dp2224
g88
g89
ssg70
g2213
sg63
(lp2225
S':'
asbag56
(g77
g58
NtRp2226
(dp2227
g61
(dp2228
sg70
g2213
sg63
(lp2229
g56
(g57
g58
NtRp2230
(dp2231
g61
(dp2232
g69
I3
ssg70
g2226
sg63
(lp2233
g1183
asbasbasbag56
(g72
g58
NtRp2234
(dp2235
g61
(dp2236
sg70
g1810
sg63
(lp2237
g56
(g77
g58
NtRp2238
(dp2239
g61
(dp2240
g81
g82
ssg70
g2234
sg63
(lp2241
S'SERVER_PORT'
p2242
asbag56
(g77
g58
NtRp2243
(dp2244
g61
(dp2245
g88
g89
ssg70
g2234
sg63
(lp2246
S':'
asbag56
(g77
g58
NtRp2247
(dp2248
g61
(dp2249
sg70
g2234
sg63
(lp2250
g56
(g57
g58
NtRp2251
(dp2252
g61
(dp2253
g69
I3
ssg70
g2247
sg63
(lp2254
g1205
asbasbasbag56
(g72
g58
NtRp2255
(dp2256
g61
(dp2257
sg70
g1810
sg63
(lp2258
g56
(g77
g58
NtRp2259
(dp2260
g61
(dp2261
g81
g82
ssg70
g2255
sg63
(lp2262
S'SERVER_PROTOCOL'
p2263
asbag56
(g77
g58
NtRp2264
(dp2265
g61
(dp2266
g88
g89
ssg70
g2255
sg63
(lp2267
S':'
asbag56
(g77
g58
NtRp2268
(dp2269
g61
(dp2270
sg70
g2255
sg63
(lp2271
g56
(g57
g58
NtRp2272
(dp2273
g61
(dp2274
g69
I3
ssg70
g2268
sg63
(lp2275
g1227
asbasbasbag56
(g72
g58
NtRp2276
(dp2277
g61
(dp2278
sg70
g1810
sg63
(lp2279
g56
(g77
g58
NtRp2280
(dp2281
g61
(dp2282
g81
g82
ssg70
g2276
sg63
(lp2283
S'uwsgi.version'
p2284
asbag56
(g77
g58
NtRp2285
(dp2286
g61
(dp2287
g88
g89
ssg70
g2276
sg63
(lp2288
S':'
asbag56
(g77
g58
NtRp2289
(dp2290
g61
(dp2291
sg70
g2276
sg63
(lp2292
g56
(g57
g58
NtRp2293
(dp2294
g61
(dp2295
g69
I3
ssg70
g2289
sg63
(lp2296
g1249
asbasbasbag56
(g72
g58
NtRp2297
(dp2298
g61
(dp2299
sg70
g1810
sg63
(lp2300
g56
(g77
g58
NtRp2301
(dp2302
g61
(dp2303
g81
g82
ssg70
g2297
sg63
(lp2304
S'wsgi.errors'
p2305
asbag56
(g77
g58
NtRp2306
(dp2307
g61
(dp2308
g88
g89
ssg70
g2297
sg63
(lp2309
S':'
asbag56
(g77
g58
NtRp2310
(dp2311
g61
(dp2312
sg70
g2297
sg63
(lp2313
g56
(g57
g58
NtRp2314
(dp2315
g61
(dp2316
g69
I3
ssg70
g2310
sg63
(lp2317
S"<open file 'wsgi_input', mode 'w' at 0x89f0c80>"
p2318
asbasbasbag56
(g72
g58
NtRp2319
(dp2320
g61
(dp2321
sg70
g1810
sg63
(lp2322
g56
(g77
g58
NtRp2323
(dp2324
g61
(dp2325
g81
g82
ssg70
g2319
sg63
(lp2326
S'wsgi.file_wrapper'
p2327
asbag56
(g77
g58
NtRp2328
(dp2329
g61
(dp2330
g88
g89
ssg70
g2319
sg63
(lp2331
S':'
asbag56
(g77
g58
NtRp2332
(dp2333
g61
(dp2334
sg70
g2319
sg63
(lp2335
g56
(g57
g58
NtRp2336
(dp2337
g61
(dp2338
g69
I3
ssg70
g2332
sg63
(lp2339
S'<built-in function uwsgi_sendfile>'
p2340
asbasbasbag56
(g72
g58
NtRp2341
(dp2342
g61
(dp2343
sg70
g1810
sg63
(lp2344
g56
(g77
g58
NtRp2345
(dp2346
g61
(dp2347
g81
g82
ssg70
g2341
sg63
(lp2348
S'wsgi.input'
p2349
asbag56
(g77
g58
NtRp2350
(dp2351
g61
(dp2352
g88
g89
ssg70
g2341
sg63
(lp2353
S':'
asbag56
(g77
g58
NtRp2354
(dp2355
g61
(dp2356
sg70
g2341
sg63
(lp2357
g56
(g57
g58
NtRp2358
(dp2359
g61
(dp2360
g69
I3
ssg70
g2354
sg63
(lp2361
S'<cStringIO.StringO object at 0x89d6da0>'
p2362
asbasbasbag56
(g72
g58
NtRp2363
(dp2364
g61
(dp2365
sg70
g1810
sg63
(lp2366
g56
(g77
g58
NtRp2367
(dp2368
g61
(dp2369
g81
g82
ssg70
g2363
sg63
(lp2370
S'wsgi.multiprocess'
p2371
asbag56
(g77
g58
NtRp2372
(dp2373
g61
(dp2374
g88
g89
ssg70
g2363
sg63
(lp2375
S':'
asbag56
(g77
g58
NtRp2376
(dp2377
g61
(dp2378
sg70
g2363
sg63
(lp2379
g56
(g57
g58
NtRp2380
(dp2381
g61
(dp2382
g69
I3
ssg70
g2376
sg63
(lp2383
g99
asbasbasbag56
(g72
g58
NtRp2384
(dp2385
g61
(dp2386
sg70
g1810
sg63
(lp2387
g56
(g77
g58
NtRp2388
(dp2389
g61
(dp2390
g81
g82
ssg70
g2384
sg63
(lp2391
S'wsgi.multithread'
p2392
asbag56
(g77
g58
NtRp2393
(dp2394
g61
(dp2395
g88
g89
ssg70
g2384
sg63
(lp2396
S':'
asbag56
(g77
g58
NtRp2397
(dp2398
g61
(dp2399
sg70
g2384
sg63
(lp2400
g56
(g57
g58
NtRp2401
(dp2402
g61
(dp2403
g69
I3
ssg70
g2397
sg63
(lp2404
g99
asbasbasbag56
(g72
g58
NtRp2405
(dp2406
g61
(dp2407
sg70
g1810
sg63
(lp2408
g56
(g77
g58
NtRp2409
(dp2410
g61
(dp2411
g81
g82
ssg70
g2405
sg63
(lp2412
S'wsgi.run_once'
p2413
asbag56
(g77
g58
NtRp2414
(dp2415
g61
(dp2416
g88
g89
ssg70
g2405
sg63
(lp2417
S':'
asbag56
(g77
g58
NtRp2418
(dp2419
g61
(dp2420
sg70
g2405
sg63
(lp2421
g56
(g57
g58
NtRp2422
(dp2423
g61
(dp2424
g69
I3
ssg70
g2418
sg63
(lp2425
g99
asbasbasbag56
(g72
g58
NtRp2426
(dp2427
g61
(dp2428
sg70
g1810
sg63
(lp2429
g56
(g77
g58
NtRp2430
(dp2431
g61
(dp2432
g81
g82
ssg70
g2426
sg63
(lp2433
S'wsgi.url_scheme'
p2434
asbag56
(g77
g58
NtRp2435
(dp2436
g61
(dp2437
g88
g89
ssg70
g2426
sg63
(lp2438
S':'
asbag56
(g77
g58
NtRp2439
(dp2440
g61
(dp2441
sg70
g2426
sg63
(lp2442
g56
(g57
g58
NtRp2443
(dp2444
g61
(dp2445
g69
I3
ssg70
g2439
sg63
(lp2446
g1443
asbasbasbag56
(g72
g58
NtRp2447
(dp2448
g61
(dp2449
sg70
g1810
sg63
(lp2450
g56
(g77
g58
NtRp2451
(dp2452
g61
(dp2453
g81
g82
ssg70
g2447
sg63
(lp2454
S'wsgi.version'
p2455
asbag56
(g77
g58
NtRp2456
(dp2457
g61
(dp2458
g88
g89
ssg70
g2447
sg63
(lp2459
S':'
asbag56
(g77
g58
NtRp2460
(dp2461
g61
(dp2462
sg70
g2447
sg63
(lp2463
g56
(g57
g58
NtRp2464
(dp2465
g61
(dp2466
g69
I3
ssg70
g2460
sg63
(lp2467
S'1'
asbasbasbasbasbasbasbasbasbasbasbasbasbsS'frames'
p2468
(lp2469
(dp2470
S'file'
p2471
S'/home/arvin/web2py/gluon/restricted.py'
p2472
sS'dump'
p2473
(dp2474
S'environment'
p2475
S"{'A': <class 'gluon.html.A'>, 'B': <class 'gluon.html.B'>, 'BEAUTIFY': <class 'gluon.html.BEAUTIFY'>, 'BODY': <class 'gluon.html.BODY'>, 'BR': <class 'gluon.html.BR'>, 'BUTTON': <class 'gluon.html.BUTTON'>, 'CENTER': <class 'gluon.html.CENTER'>, 'CLEANUP': <class 'gluon.validators.CLEANUP'>, 'CODE': <class 'gluon.html.CODE'>, 'CRYPT': <class 'gluon.validators.CRYPT'>, ...}"
p2476
sS'ccode'
p2477
S'<code object <module> at 0x89dae78, file "/home/...eb2py/applications/welcome/models/db.py", line 8>'
p2478
ssS'lnum'
p2479
I192
sS'lines'
p2480
(dp2481
I192
S'        exec ccode in environment'
p2482
sI193
S'    except HTTP:'
p2483
sI194
S'        raise'
p2484
sI195
S'    except Exception:'
p2485
sI196
S'        # XXX Show exception in Wing IDE if running in debugger'
p2486
sI187
S'    try:'
p2487
sI188
S'        if type(code) == types.CodeType:'
p2488
sI189
S'            ccode = code'
p2489
sI190
S'        else:'
p2490
sI191
S'            ccode = compile2(code,layer)'
p2491
ssS'call'
p2492
S"(code='# -*- coding: utf-8 -*-\\n# this file is released ...################################################\\n', environment={'A': <class 'gluon.html.A'>, 'B': <class 'gluon.html.B'>, 'BEAUTIFY': <class 'gluon.html.BEAUTIFY'>, 'BODY': <class 'gluon.html.BODY'>, 'BR': <class 'gluon.html.BR'>, 'BUTTON': <class 'gluon.html.BUTTON'>, 'CENTER': <class 'gluon.html.CENTER'>, 'CLEANUP': <class 'gluon.validators.CLEANUP'>, 'CODE': <class 'gluon.html.CODE'>, 'CRYPT': <class 'gluon.validators.CRYPT'>, ...}, layer='/home/arvin/web2py/applications/welcome/models/db.py')"
p2493
sS'func'
p2494
S'restricted'
p2495
sa(dp2496
g2471
S'/home/arvin/web2py/applications/welcome/models/db.py'
p2497
sg2473
(dp2498
S'DAL'
p2499
S"<class 'gluon.dal.DAL'>"
p2500
sS'db'
p2501
S'undefined'
p2502
ssg2479
I17
sg2480
(dp2503
I12
S'    ### or use the following lines to store sessions in Memcache'
p2504
sI13
S'    # from gluon.contrib.memdb import MEMDB'
p2505
sI14
S'    # from google.appengine.api.memcache import Client'
p2506
sI15
S'    # session.connect(request, response, db = MEMDB(Client()))'
p2507
sI16
S'else:                                         # else use a normal relational database'
p2508
sI17
S"    db = DAL('mysql://root:root@localhost/w2py')       # if not, use SQLite or other DB"
p2509
sI18
S"              #'sqlite://storage.sqlite'"
p2510
sI19
S'# by default give a view/generic.extension to all actions from localhost'
p2511
sI20
S"# none otherwise. a pattern can be 'controller/function.extension'"
p2512
sI21
S"response.generic_patterns = ['*'] if request.is_local else []"
p2513
ssg2492
S'()'
p2514
sg2494
S'<module>'
p2515
sa(dp2516
g2471
S'/home/arvin/web2py/gluon/dal.py'
p2517
sg2473
(dp2518
S'attempts'
p2519
S'5'
sS'builtinRuntimeError'
p2520
S"<type 'exceptions.RuntimeError'>"
p2521
sS'error'
p2522
S'OperationalError(2003, "Can\'t connect to MySQL server on \'localhost\' (111)")'
p2523
ssg2479
I3905
sg2480
(dp2524
I3904
S'            if not connected:'
p2525
sI3905
S'                raise RuntimeError, "Failure to connect, tried %d times:\\n%s" % (attempts, error)'
p2526
sI3906
S'        else:'
p2527
sI3907
S"            args = (self,'None',0,folder,db_codec)"
p2528
sI3908
S'            self._adapter = BaseAdapter(*args)'
p2529
sI3909
S'            migrate = fake_migrate = False'
p2530
sI3900
S'                if connected:'
p2531
sI3901
S'                    break'
p2532
sI3902
S'                else:'
p2533
sI3903
S'                    time.sleep(1)'
p2534
ssg2492
S"(self=<DAL {'_lastsql': '', '_db_codec': 'UTF-8', '_ti...st/w2py', '_pool_size': 0, '_common_fields': []}>, uri='mysql://root:root@localhost/w2py', pool_size=0, folder=None, db_codec='UTF-8', check_reserved=None, migrate=True, fake_migrate=False, migrate_enabled=True, fake_migrate_all=False, decode_credentials=False, driver_args=None, adapter_args={}, attempts=5, auto_import=False)"
p2535
sg2494
g49
sasS'pyver'
p2536
S'Python 2.7.1+: '
p2537
sS'session'
p2538
g56
(g57
g58
NtRp2539
(dp2540
g61
(dp2541
sg63
(lp2542
g56
(g65
g58
NtRp2543
(dp2544
g61
(dp2545
g69
I5
ssg70
Nsg63
(lp2546
sbasbsS'etype'
p2547
S"<type 'exceptions.RuntimeError'>"
p2548
sS'date'
p2549
S'Tue Jun 21 13:48:42 2011'
p2550
sS'response'
p2551
g56
(g57
g58
NtRp2552
(dp2553
g61
(dp2554
sg63
(lp2555
g56
(g65
g58
NtRp2556
(dp2557
g61
(dp2558
g69
I5
ssg70
Nsg63
(lp2559
g56
(g72
g58
NtRp2560
(dp2561
g61
(dp2562
sg70
g2556
sg63
(lp2563
g56
(g77
g58
NtRp2564
(dp2565
g61
(dp2566
g81
g82
ssg70
g2560
sg63
(lp2567
g154
asbag56
(g77
g58
NtRp2568
(dp2569
g61
(dp2570
g88
g89
ssg70
g2560
sg63
(lp2571
S':'
asbag56
(g77
g58
NtRp2572
(dp2573
g61
(dp2574
sg70
g2560
sg63
(lp2575
g56
(g57
g58
NtRp2576
(dp2577
g61
(dp2578
g69
I5
ssg70
g2572
sg63
(lp2579
S'<cStringIO.StringO object at 0x8a7b920>'
p2580
asbasbasbag56
(g72
g58
NtRp2581
(dp2582
g61
(dp2583
sg70
g2556
sg63
(lp2584
g56
(g77
g58
NtRp2585
(dp2586
g61
(dp2587
g81
g82
ssg70
g2581
sg63
(lp2588
g220
asbag56
(g77
g58
NtRp2589
(dp2590
g61
(dp2591
g88
g89
ssg70
g2581
sg63
(lp2592
S':'
asbag56
(g77
g58
NtRp2593
(dp2594
g61
(dp2595
sg70
g2581
sg63
(lp2596
g56
(g57
g58
NtRp2597
(dp2598
g61
(dp2599
g69
I5
ssg70
g2593
sg63
(lp2600
g56
(g65
g58
NtRp2601
(dp2602
g61
(dp2603
g69
I4
ssg70
Nsg63
(lp2604
g56
(g72
g58
NtRp2605
(dp2606
g61
(dp2607
sg70
g2601
sg63
(lp2608
g56
(g77
g58
NtRp2609
(dp2610
g61
(dp2611
g81
g82
ssg70
g2605
sg63
(lp2612
S'session_id_welcome'
p2613
asbag56
(g77
g58
NtRp2614
(dp2615
g61
(dp2616
g88
g89
ssg70
g2605
sg63
(lp2617
S':'
asbag56
(g77
g58
NtRp2618
(dp2619
g61
(dp2620
sg70
g2605
sg63
(lp2621
g56
(g57
g58
NtRp2622
(dp2623
g61
(dp2624
g69
I4
ssg70
g2618
sg63
(lp2625
g56
(g65
g58
NtRp2626
(dp2627
g61
(dp2628
g69
I3
ssg70
Nsg63
(lp2629
g56
(g72
g58
NtRp2630
(dp2631
g61
(dp2632
sg70
g2626
sg63
(lp2633
g56
(g77
g58
NtRp2634
(dp2635
g61
(dp2636
g81
g82
ssg70
g2630
sg63
(lp2637
g270
asbag56
(g77
g58
NtRp2638
(dp2639
g61
(dp2640
g88
g89
ssg70
g2630
sg63
(lp2641
S':'
asbag56
(g77
g58
NtRp2642
(dp2643
g61
(dp2644
sg70
g2630
sg63
(lp2645
g56
(g57
g58
NtRp2646
(dp2647
g61
(dp2648
g69
I3
ssg70
g2642
sg63
(lp2649
S''
asbasbasbag56
(g72
g58
NtRp2650
(dp2651
g61
(dp2652
sg70
g2626
sg63
(lp2653
g56
(g77
g58
NtRp2654
(dp2655
g61
(dp2656
g81
g82
ssg70
g2650
sg63
(lp2657
g291
asbag56
(g77
g58
NtRp2658
(dp2659
g61
(dp2660
g88
g89
ssg70
g2650
sg63
(lp2661
S':'
asbag56
(g77
g58
NtRp2662
(dp2663
g61
(dp2664
sg70
g2650
sg63
(lp2665
g56
(g57
g58
NtRp2666
(dp2667
g61
(dp2668
g69
I3
ssg70
g2662
sg63
(lp2669
S''
asbasbasbag56
(g72
g58
NtRp2670
(dp2671
g61
(dp2672
sg70
g2626
sg63
(lp2673
g56
(g77
g58
NtRp2674
(dp2675
g61
(dp2676
g81
g82
ssg70
g2670
sg63
(lp2677
g312
asbag56
(g77
g58
NtRp2678
(dp2679
g61
(dp2680
g88
g89
ssg70
g2670
sg63
(lp2681
S':'
asbag56
(g77
g58
NtRp2682
(dp2683
g61
(dp2684
sg70
g2670
sg63
(lp2685
g56
(g57
g58
NtRp2686
(dp2687
g61
(dp2688
g69
I3
ssg70
g2682
sg63
(lp2689
S''
asbasbasbag56
(g72
g58
NtRp2690
(dp2691
g61
(dp2692
sg70
g2626
sg63
(lp2693
g56
(g77
g58
NtRp2694
(dp2695
g61
(dp2696
g81
g82
ssg70
g2690
sg63
(lp2697
g333
asbag56
(g77
g58
NtRp2698
(dp2699
g61
(dp2700
g88
g89
ssg70
g2690
sg63
(lp2701
S':'
asbag56
(g77
g58
NtRp2702
(dp2703
g61
(dp2704
sg70
g2690
sg63
(lp2705
g56
(g57
g58
NtRp2706
(dp2707
g61
(dp2708
g69
I3
ssg70
g2702
sg63
(lp2709
S''
asbasbasbag56
(g72
g58
NtRp2710
(dp2711
g61
(dp2712
sg70
g2626
sg63
(lp2713
g56
(g77
g58
NtRp2714
(dp2715
g61
(dp2716
g81
g82
ssg70
g2710
sg63
(lp2717
g354
asbag56
(g77
g58
NtRp2718
(dp2719
g61
(dp2720
g88
g89
ssg70
g2710
sg63
(lp2721
S':'
asbag56
(g77
g58
NtRp2722
(dp2723
g61
(dp2724
sg70
g2710
sg63
(lp2725
g56
(g57
g58
NtRp2726
(dp2727
g61
(dp2728
g69
I3
ssg70
g2722
sg63
(lp2729
S''
asbasbasbag56
(g72
g58
NtRp2730
(dp2731
g61
(dp2732
sg70
g2626
sg63
(lp2733
g56
(g77
g58
NtRp2734
(dp2735
g61
(dp2736
g81
g82
ssg70
g2730
sg63
(lp2737
g375
asbag56
(g77
g58
NtRp2738
(dp2739
g61
(dp2740
g88
g89
ssg70
g2730
sg63
(lp2741
S':'
asbag56
(g77
g58
NtRp2742
(dp2743
g61
(dp2744
sg70
g2730
sg63
(lp2745
g56
(g57
g58
NtRp2746
(dp2747
g61
(dp2748
g69
I3
ssg70
g2742
sg63
(lp2749
S'/'
asbasbasbag56
(g72
g58
NtRp2750
(dp2751
g61
(dp2752
sg70
g2626
sg63
(lp2753
g56
(g77
g58
NtRp2754
(dp2755
g61
(dp2756
g81
g82
ssg70
g2750
sg63
(lp2757
g396
asbag56
(g77
g58
NtRp2758
(dp2759
g61
(dp2760
g88
g89
ssg70
g2750
sg63
(lp2761
S':'
asbag56
(g77
g58
NtRp2762
(dp2763
g61
(dp2764
sg70
g2750
sg63
(lp2765
g56
(g57
g58
NtRp2766
(dp2767
g61
(dp2768
g69
I3
ssg70
g2762
sg63
(lp2769
S''
asbasbasbag56
(g72
g58
NtRp2770
(dp2771
g61
(dp2772
sg70
g2626
sg63
(lp2773
g56
(g77
g58
NtRp2774
(dp2775
g61
(dp2776
g81
g82
ssg70
g2770
sg63
(lp2777
g417
asbag56
(g77
g58
NtRp2778
(dp2779
g61
(dp2780
g88
g89
ssg70
g2770
sg63
(lp2781
S':'
asbag56
(g77
g58
NtRp2782
(dp2783
g61
(dp2784
sg70
g2770
sg63
(lp2785
g56
(g57
g58
NtRp2786
(dp2787
g61
(dp2788
g69
I3
ssg70
g2782
sg63
(lp2789
S''
asbasbasbasbasbasbasbasbasbasbasbag56
(g72
g58
NtRp2790
(dp2791
g61
(dp2792
sg70
g2556
sg63
(lp2793
g56
(g77
g58
NtRp2794
(dp2795
g61
(dp2796
g81
g82
ssg70
g2790
sg63
(lp2797
S'files'
p2798
asbag56
(g77
g58
NtRp2799
(dp2800
g61
(dp2801
g88
g89
ssg70
g2790
sg63
(lp2802
S':'
asbag56
(g77
g58
NtRp2803
(dp2804
g61
(dp2805
sg70
g2790
sg63
(lp2806
g56
(g57
g58
NtRp2807
(dp2808
g61
(dp2809
g69
I5
ssg70
g2803
sg63
(lp2810
g56
(g65
g58
NtRp2811
(dp2812
g61
(dp2813
g69
I4
ssg70
Nsg63
(lp2814
sbasbasbasbag56
(g72
g58
NtRp2815
(dp2816
g61
(dp2817
sg70
g2556
sg63
(lp2818
g56
(g77
g58
NtRp2819
(dp2820
g61
(dp2821
g81
g82
ssg70
g2815
sg63
(lp2822
S'flash'
p2823
asbag56
(g77
g58
NtRp2824
(dp2825
g61
(dp2826
g88
g89
ssg70
g2815
sg63
(lp2827
S':'
asbag56
(g77
g58
NtRp2828
(dp2829
g61
(dp2830
sg70
g2815
sg63
(lp2831
g56
(g57
g58
NtRp2832
(dp2833
g61
(dp2834
g69
I5
ssg70
g2828
sg63
(lp2835
S''
asbasbasbag56
(g72
g58
NtRp2836
(dp2837
g61
(dp2838
sg70
g2556
sg63
(lp2839
g56
(g77
g58
NtRp2840
(dp2841
g61
(dp2842
g81
g82
ssg70
g2836
sg63
(lp2843
S'headers'
p2844
asbag56
(g77
g58
NtRp2845
(dp2846
g61
(dp2847
g88
g89
ssg70
g2836
sg63
(lp2848
S':'
asbag56
(g77
g58
NtRp2849
(dp2850
g61
(dp2851
sg70
g2836
sg63
(lp2852
g56
(g57
g58
NtRp2853
(dp2854
g61
(dp2855
g69
I5
ssg70
g2849
sg63
(lp2856
g56
(g65
g58
NtRp2857
(dp2858
g61
(dp2859
g69
I4
ssg70
Nsg63
(lp2860
g56
(g72
g58
NtRp2861
(dp2862
g61
(dp2863
sg70
g2857
sg63
(lp2864
g56
(g77
g58
NtRp2865
(dp2866
g61
(dp2867
g81
g82
ssg70
g2861
sg63
(lp2868
S'Cache-Control'
p2869
asbag56
(g77
g58
NtRp2870
(dp2871
g61
(dp2872
g88
g89
ssg70
g2861
sg63
(lp2873
S':'
asbag56
(g77
g58
NtRp2874
(dp2875
g61
(dp2876
sg70
g2861
sg63
(lp2877
g56
(g57
g58
NtRp2878
(dp2879
g61
(dp2880
g69
I4
ssg70
g2874
sg63
(lp2881
S'no-store, no-cache, must-revalidate, post-check=0, pre-check=0'
p2882
asbasbasbag56
(g72
g58
NtRp2883
(dp2884
g61
(dp2885
sg70
g2857
sg63
(lp2886
g56
(g77
g58
NtRp2887
(dp2888
g61
(dp2889
g81
g82
ssg70
g2883
sg63
(lp2890
S'Content-Type'
p2891
asbag56
(g77
g58
NtRp2892
(dp2893
g61
(dp2894
g88
g89
ssg70
g2883
sg63
(lp2895
S':'
asbag56
(g77
g58
NtRp2896
(dp2897
g61
(dp2898
sg70
g2883
sg63
(lp2899
g56
(g57
g58
NtRp2900
(dp2901
g61
(dp2902
g69
I4
ssg70
g2896
sg63
(lp2903
S'text/html; charset=utf-8'
p2904
asbasbasbag56
(g72
g58
NtRp2905
(dp2906
g61
(dp2907
sg70
g2857
sg63
(lp2908
g56
(g77
g58
NtRp2909
(dp2910
g61
(dp2911
g81
g82
ssg70
g2905
sg63
(lp2912
S'Expires'
p2913
asbag56
(g77
g58
NtRp2914
(dp2915
g61
(dp2916
g88
g89
ssg70
g2905
sg63
(lp2917
S':'
asbag56
(g77
g58
NtRp2918
(dp2919
g61
(dp2920
sg70
g2905
sg63
(lp2921
g56
(g57
g58
NtRp2922
(dp2923
g61
(dp2924
g69
I4
ssg70
g2918
sg63
(lp2925
S'Tue, 21 Jun 2011 19:48:37 GMT'
p2926
asbasbasbag56
(g72
g58
NtRp2927
(dp2928
g61
(dp2929
sg70
g2857
sg63
(lp2930
g56
(g77
g58
NtRp2931
(dp2932
g61
(dp2933
g81
g82
ssg70
g2927
sg63
(lp2934
S'Pragma'
p2935
asbag56
(g77
g58
NtRp2936
(dp2937
g61
(dp2938
g88
g89
ssg70
g2927
sg63
(lp2939
S':'
asbag56
(g77
g58
NtRp2940
(dp2941
g61
(dp2942
sg70
g2927
sg63
(lp2943
g56
(g57
g58
NtRp2944
(dp2945
g61
(dp2946
g69
I4
ssg70
g2940
sg63
(lp2947
S'no-cache'
p2948
asbasbasbag56
(g72
g58
NtRp2949
(dp2950
g61
(dp2951
sg70
g2857
sg63
(lp2952
g56
(g77
g58
NtRp2953
(dp2954
g61
(dp2955
g81
g82
ssg70
g2949
sg63
(lp2956
S'X-Powered-By'
p2957
asbag56
(g77
g58
NtRp2958
(dp2959
g61
(dp2960
g88
g89
ssg70
g2949
sg63
(lp2961
S':'
asbag56
(g77
g58
NtRp2962
(dp2963
g61
(dp2964
sg70
g2949
sg63
(lp2965
g56
(g57
g58
NtRp2966
(dp2967
g61
(dp2968
g69
I4
ssg70
g2962
sg63
(lp2969
S'web2py'
p2970
asbasbasbasbasbasbasbag56
(g72
g58
NtRp2971
(dp2972
g61
(dp2973
sg70
g2556
sg63
(lp2974
g56
(g77
g58
NtRp2975
(dp2976
g61
(dp2977
g81
g82
ssg70
g2971
sg63
(lp2978
S'menu'
p2979
asbag56
(g77
g58
NtRp2980
(dp2981
g61
(dp2982
g88
g89
ssg70
g2971
sg63
(lp2983
S':'
asbag56
(g77
g58
NtRp2984
(dp2985
g61
(dp2986
sg70
g2971
sg63
(lp2987
g56
(g57
g58
NtRp2988
(dp2989
g61
(dp2990
g69
I5
ssg70
g2984
sg63
(lp2991
g56
(g65
g58
NtRp2992
(dp2993
g61
(dp2994
g69
I4
ssg70
Nsg63
(lp2995
sbasbasbasbag56
(g72
g58
NtRp2996
(dp2997
g61
(dp2998
sg70
g2556
sg63
(lp2999
g56
(g77
g58
NtRp3000
(dp3001
g61
(dp3002
g81
g82
ssg70
g2996
sg63
(lp3003
S'meta'
p3004
asbag56
(g77
g58
NtRp3005
(dp3006
g61
(dp3007
g88
g89
ssg70
g2996
sg63
(lp3008
S':'
asbag56
(g77
g58
NtRp3009
(dp3010
g61
(dp3011
sg70
g2996
sg63
(lp3012
g56
(g57
g58
NtRp3013
(dp3014
g61
(dp3015
g69
I5
ssg70
g3009
sg63
(lp3016
g56
(g65
g58
NtRp3017
(dp3018
g61
(dp3019
g69
I4
ssg70
Nsg63
(lp3020
sbasbasbasbag56
(g72
g58
NtRp3021
(dp3022
g61
(dp3023
sg70
g2556
sg63
(lp3024
g56
(g77
g58
NtRp3025
(dp3026
g61
(dp3027
g81
g82
ssg70
g3021
sg63
(lp3028
S'postprocessing'
p3029
asbag56
(g77
g58
NtRp3030
(dp3031
g61
(dp3032
g88
g89
ssg70
g3021
sg63
(lp3033
S':'
asbag56
(g77
g58
NtRp3034
(dp3035
g61
(dp3036
sg70
g3021
sg63
(lp3037
g56
(g57
g58
NtRp3038
(dp3039
g61
(dp3040
g69
I5
ssg70
g3034
sg63
(lp3041
g56
(g65
g58
NtRp3042
(dp3043
g61
(dp3044
g69
I4
ssg70
Nsg63
(lp3045
sbasbasbasbag56
(g72
g58
NtRp3046
(dp3047
g61
(dp3048
sg70
g2556
sg63
(lp3049
g56
(g77
g58
NtRp3050
(dp3051
g61
(dp3052
g81
g82
ssg70
g3046
sg63
(lp3053
S'session_filename'
p3054
asbag56
(g77
g58
NtRp3055
(dp3056
g61
(dp3057
g88
g89
ssg70
g3046
sg63
(lp3058
S':'
asbag56
(g77
g58
NtRp3059
(dp3060
g61
(dp3061
sg70
g3046
sg63
(lp3062
g56
(g57
g58
NtRp3063
(dp3064
g61
(dp3065
g69
I5
ssg70
g3059
sg63
(lp3066
S'/home/arvin/web2py/applications/welcome/sessions/186.32.48.60-8342eda1-3b6c-4efb-9f3c-df54a0363870'
p3067
asbasbasbag56
(g72
g58
NtRp3068
(dp3069
g61
(dp3070
sg70
g2556
sg63
(lp3071
g56
(g77
g58
NtRp3072
(dp3073
g61
(dp3074
g81
g82
ssg70
g3068
sg63
(lp3075
S'session_id'
p3076
asbag56
(g77
g58
NtRp3077
(dp3078
g61
(dp3079
g88
g89
ssg70
g3068
sg63
(lp3080
S':'
asbag56
(g77
g58
NtRp3081
(dp3082
g61
(dp3083
sg70
g3068
sg63
(lp3084
g56
(g57
g58
NtRp3085
(dp3086
g61
(dp3087
g69
I5
ssg70
g3081
sg63
(lp3088
S'186.32.48.60-8342eda1-3b6c-4efb-9f3c-df54a0363870'
p3089
asbasbasbag56
(g72
g58
NtRp3090
(dp3091
g61
(dp3092
sg70
g2556
sg63
(lp3093
g56
(g77
g58
NtRp3094
(dp3095
g61
(dp3096
g81
g82
ssg70
g3090
sg63
(lp3097
S'session_id_name'
p3098
asbag56
(g77
g58
NtRp3099
(dp3100
g61
(dp3101
g88
g89
ssg70
g3090
sg63
(lp3102
S':'
asbag56
(g77
g58
NtRp3103
(dp3104
g61
(dp3105
sg70
g3090
sg63
(lp3106
g56
(g57
g58
NtRp3107
(dp3108
g61
(dp3109
g69
I5
ssg70
g3103
sg63
(lp3110
g2613
asbasbasbag56
(g72
g58
NtRp3111
(dp3112
g61
(dp3113
sg70
g2556
sg63
(lp3114
g56
(g77
g58
NtRp3115
(dp3116
g61
(dp3117
g81
g82
ssg70
g3111
sg63
(lp3118
S'session_new'
p3119
asbag56
(g77
g58
NtRp3120
(dp3121
g61
(dp3122
g88
g89
ssg70
g3111
sg63
(lp3123
S':'
asbag56
(g77
g58
NtRp3124
(dp3125
g61
(dp3126
sg70
g3111
sg63
(lp3127
g56
(g57
g58
NtRp3128
(dp3129
g61
(dp3130
g69
I5
ssg70
g3124
sg63
(lp3131
g1605
asbasbasbag56
(g72
g58
NtRp3132
(dp3133
g61
(dp3134
sg70
g2556
sg63
(lp3135
g56
(g77
g58
NtRp3136
(dp3137
g61
(dp3138
g81
g82
ssg70
g3132
sg63
(lp3139
S'status'
p3140
asbag56
(g77
g58
NtRp3141
(dp3142
g61
(dp3143
g88
g89
ssg70
g3132
sg63
(lp3144
S':'
asbag56
(g77
g58
NtRp3145
(dp3146
g61
(dp3147
sg70
g3132
sg63
(lp3148
g56
(g57
g58
NtRp3149
(dp3150
g61
(dp3151
g69
I5
ssg70
g3145
sg63
(lp3152
S'200'
p3153
asbasbasbag56
(g72
g58
NtRp3154
(dp3155
g61
(dp3156
sg70
g2556
sg63
(lp3157
g56
(g77
g58
NtRp3158
(dp3159
g61
(dp3160
g81
g82
ssg70
g3154
sg63
(lp3161
g1725
asbag56
(g77
g58
NtRp3162
(dp3163
g61
(dp3164
g88
g89
ssg70
g3154
sg63
(lp3165
S':'
asbag56
(g77
g58
NtRp3166
(dp3167
g61
(dp3168
sg70
g3154
sg63
(lp3169
g56
(g57
g58
NtRp3170
(dp3171
g61
(dp3172
g69
I5
ssg70
g3166
sg63
(lp3173
g1738
asbasbasbag56
(g72
g58
NtRp3174
(dp3175
g61
(dp3176
sg70
g2556
sg63
(lp3177
g56
(g77
g58
NtRp3178
(dp3179
g61
(dp3180
g81
g82
ssg70
g3174
sg63
(lp3181
S'view'
p3182
asbag56
(g77
g58
NtRp3183
(dp3184
g61
(dp3185
g88
g89
ssg70
g3174
sg63
(lp3186
S':'
asbag56
(g77
g58
NtRp3187
(dp3188
g61
(dp3189
sg70
g3174
sg63
(lp3190
g56
(g57
g58
NtRp3191
(dp3192
g61
(dp3193
g69
I5
ssg70
g3187
sg63
(lp3194
S'default/index.html'
p3195
asbasbasbasbasbsS'locals'
p3196
(dp3197
S'uris'
p3198
S"['mysql://root:root@localhost/w2py']"
p3199
sg41
S"(<DAL {'_lastsql': '', '_db_codec': 'UTF-8', '_ti...st/w2py', '_pool_size': 0, '_common_fields': []}>, 'mysql://root:root@localhost/w2py', 0, None, 'UTF-8', <function <lambda>>, {'charset': 'utf8', 'db': 'w2py', 'host': 'localhost', 'passwd': 'root', 'port': 3306, 'user': 'root'}, {})"
p3200
sS'fake_migrate_all'
p3201
g99
sS'migrate'
p3202
g1605
sS'driver_args'
p3203
S'None'
p3204
sS'k'
S'4'
sS'adapter_args'
p3205
g44
sS'auto_import'
p3206
g99
sS'uri'
p3207
S"'mysql://root:root@localhost/w2py'"
p3208
sS'migrate_enabled'
p3209
g1605
sS'fake_migrate'
p3210
g99
sS'check_reserved'
p3211
S'None'
p3212
sS'attempts'
p3213
S'5'
sS'connected'
p3214
g99
sS'error'
p3215
S'OperationalError(2003, "Can\'t connect to MySQL server on \'localhost\' (111)")'
p3216
sS'pool_size'
p3217
S'0'
sg1523
S'None'
p3218
sS'decode_credentials'
p3219
g99
sS'credential_decoder'
p3220
S'<function <lambda>>'
p3221
sS'self'
p3222
S"<DAL {'_lastsql': '', '_db_codec': 'UTF-8', '_ti...st/w2py', '_pool_size': 0, '_common_fields': []}>"
p3223
sS'db_codec'
p3224
S"'UTF-8'"
p3225
sssS'traceback'
p3226
S'Traceback (most recent call last):\n  File "/home/arvin/web2py/gluon/restricted.py", line 192, in restricted\n    exec ccode in environment\n  File "/home/arvin/web2py/applications/welcome/models/db.py", line 17, in <module>\n    db = DAL(\'mysql://root:root@localhost/w2py\')       # if not, use SQLite or other DB\n  File "/home/arvin/web2py/gluon/dal.py", line 3905, in __init__\n    raise RuntimeError, "Failure to connect, tried %d times:\\n%s" % (attempts, error)\nRuntimeError: Failure to connect, tried 5 times:\n(2003, "Can\'t connect to MySQL server on \'localhost\' (111)")\n'
p3227
s.