(dp1
S'output'
p2
S''
sS'layer'
p3
S'/home/arvin/web2py/applications/welcome/models/db.py'
p4
sS'code'
p5
S'# -*- coding: utf-8 -*-\n# this file is released under public domain and you can use without limitations\n\n#########################################################################\n## This scaffolding model makes your app work on Google App Engine too\n#########################################################################\n\nif request.env.web2py_runtime_gae:            # if running on Google App Engine\n    db = DAL(\'google:datastore\')              # connect to Google BigTable\n                                              # optional DAL(\'gae://namespace\')\n    session.connect(request, response, db = db) # and store sessions and tickets there\n    ### or use the following lines to store sessions in Memcache\n    # from gluon.contrib.memdb import MEMDB\n    # from google.appengine.api.memcache import Client\n    # session.connect(request, response, db = MEMDB(Client()))\nelse:                                         # else use a normal relational database\n    db = DAL(\'mysql://arvin:aaa@69.164.212.73/arvin_web2py\')       # if not, use SQLite or other DB\n              #\'sqlite://storage.sqlite\'\n# by default give a view/generic.extension to all actions from localhost\n# none otherwise. a pattern can be \'controller/function.extension\'\nresponse.generic_patterns = [\'*\'] if request.is_local else []\n\n#########################################################################\n## Here is sample code if you need for\n## - email capabilities\n## - authentication (registration, login, logout, ... )\n## - authorization (role based authorization)\n## - services (xml, csv, json, xmlrpc, jsonrpc, amf, rss)\n## - crud actions\n## (more options discussed in gluon/tools.py)\n#########################################################################\n\nfrom gluon.tools import Mail, Auth, Crud, Service, PluginManager, prettydate\nmail = Mail()                                  # mailer\nauth = Auth(db)                                # authentication/authorization\ncrud = Crud(db)                                # for CRUD helpers using auth\nservice = Service()                            # for json, xml, jsonrpc, xmlrpc, amfrpc\nplugins = PluginManager()                      # for configuring plugins\n\nmail.settings.server = \'logging\' or \'smtp.gmail.com:587\'  # your SMTP server\nmail.settings.sender = \'you@gmail.com\'         # your email\nmail.settings.login = \'username:password\'      # your credentials or None\n\nauth.settings.hmac_key = \'<your secret key>\'   # before define_tables()\nauth.define_tables()                           # creates all needed tables\nauth.settings.mailer = mail                    # for user email verification\nauth.settings.registration_requires_verification = False\nauth.settings.registration_requires_approval = False\nauth.messages.verify_email = \'Click on the link http://\'+request.env.http_host+URL(\'default\',\'user\',args=[\'verify_email\'])+\'/%(key)s to verify your email\'\nauth.settings.reset_password_requires_verification = True\nauth.messages.reset_password = \'Click on the link http://\'+request.env.http_host+URL(\'default\',\'user\',args=[\'reset_password\'])+\'/%(key)s to reset your password\'\n\n#########################################################################\n## If you need to use OpenID, Facebook, MySpace, Twitter, Linkedin, etc.\n## register with janrain.com, uncomment and customize following\n# from gluon.contrib.login_methods.rpx_account import RPXAccount\n# auth.settings.actions_disabled = \\\n#    [\'register\',\'change_password\',\'request_reset_password\']\n# auth.settings.login_form = RPXAccount(request, api_key=\'...\',domain=\'...\',\n#    url = "http://localhost:8000/%s/default/user/login" % request.application)\n## other login methods are in gluon/contrib/login_methods\n#########################################################################\n\ncrud.settings.auth = None        # =auth to enforce authorization on crud\n\n#########################################################################\n## Define your tables below (or better in another model file) for example\n##\n## >>> db.define_table(\'mytable\',Field(\'myfield\',\'string\'))\n##\n## Fields can be \'string\',\'text\',\'password\',\'integer\',\'double\',\'boolean\'\n##       \'date\',\'time\',\'datetime\',\'blob\',\'upload\', \'reference TABLENAME\'\n## There is an implicit \'id integer autoincrement\' field\n## Consult manual for more options, validators, etc.\n##\n## More API examples for controllers:\n##\n## >>> db.mytable.insert(myfield=\'value\')\n## >>> rows=db(db.mytable.myfield==\'value\').select(db.mytable.ALL)\n## >>> for row in rows: print row.id, row.myfield\n#########################################################################\n'
p6
sS'snapshot'
p7
(dp8
S'exception'
p9
(dp10
S'__getslice__'
p11
S"<method-wrapper '__getslice__' of exceptions.IOError object>"
p12
sS'__str__'
p13
S"<method-wrapper '__str__' of exceptions.IOError object>"
p14
sS'__reduce__'
p15
S'<built-in method __reduce__ of exceptions.IOError object>'
p16
sS'__dict__'
p17
S'{}'
p18
sS'__sizeof__'
p19
S'<built-in method __sizeof__ of exceptions.IOError object>'
p20
sS'__init__'
p21
S"<method-wrapper '__init__' of exceptions.IOError object>"
p22
sS'__setattr__'
p23
S"<method-wrapper '__setattr__' of exceptions.IOError object>"
p24
sS'__reduce_ex__'
p25
S'<built-in method __reduce_ex__ of exceptions.IOError object>'
p26
sS'__new__'
p27
S'<built-in method __new__ of type object>'
p28
sS'errno'
p29
S'13'
p30
sS'__format__'
p31
S'<built-in method __format__ of exceptions.IOError object>'
p32
sS'__class__'
p33
S"<type 'exceptions.IOError'>"
p34
sS'filename'
p35
S"'/home/arvin/web2py/applications/welcome/databases/sql.log'"
p36
sS'__doc__'
p37
S"'I/O operation failed.'"
p38
sS'__getitem__'
p39
S"<method-wrapper '__getitem__' of exceptions.IOError object>"
p40
sS'__setstate__'
p41
S'<built-in method __setstate__ of exceptions.IOError object>'
p42
sS'__getattribute__'
p43
S"<method-wrapper '__getattribute__' of exceptions.IOError object>"
p44
sS'args'
p45
S"(13, 'Permission denied')"
p46
sS'__subclasshook__'
p47
S'<built-in method __subclasshook__ of type object>'
p48
sS'__unicode__'
p49
S'<built-in method __unicode__ of exceptions.IOError object>'
p50
sS'strerror'
p51
S"'Permission denied'"
p52
sS'__delattr__'
p53
S"<method-wrapper '__delattr__' of exceptions.IOError object>"
p54
sS'__repr__'
p55
S"<method-wrapper '__repr__' of exceptions.IOError object>"
p56
sS'__hash__'
p57
S"<method-wrapper '__hash__' of exceptions.IOError object>"
p58
ssS'evalue'
p59
S"[Errno 13] Permission denied: '/home/arvin/web2py/applications/welcome/databases/sql.log'"
p60
sS'request'
p61
ccopy_reg
_reconstructor
p62
(cgluon.html
BEAUTIFY
p63
c__builtin__
object
p64
NtRp65
(dp66
S'attributes'
p67
(dp68
sS'components'
p69
(lp70
g62
(cgluon.html
TABLE
p71
g64
NtRp72
(dp73
g67
(dp74
S'level'
p75
I5
ssS'parent'
p76
Nsg69
(lp77
g62
(cgluon.html
TR
p78
g64
NtRp79
(dp80
g67
(dp81
sg76
g72
sg69
(lp82
g62
(cgluon.html
TD
p83
g64
NtRp84
(dp85
g67
(dp86
S'_style'
p87
S'font-weight:bold;'
p88
ssg76
g79
sg69
(lp89
S'ajax'
p90
asbag62
(g83
g64
NtRp91
(dp92
g67
(dp93
S'_valign'
p94
S'top'
p95
ssg76
g79
sg69
(lp96
S':'
asbag62
(g83
g64
NtRp97
(dp98
g67
(dp99
sg76
g79
sg69
(lp100
g62
(g63
g64
NtRp101
(dp102
g67
(dp103
g75
I5
ssg76
g97
sg69
(lp104
S'False'
p105
asbasbasbag62
(g78
g64
NtRp106
(dp107
g67
(dp108
sg76
g72
sg69
(lp109
g62
(g83
g64
NtRp110
(dp111
g67
(dp112
g87
g88
ssg76
g106
sg69
(lp113
S'application'
p114
asbag62
(g83
g64
NtRp115
(dp116
g67
(dp117
g94
g95
ssg76
g106
sg69
(lp118
S':'
asbag62
(g83
g64
NtRp119
(dp120
g67
(dp121
sg76
g106
sg69
(lp122
g62
(g63
g64
NtRp123
(dp124
g67
(dp125
g75
I5
ssg76
g119
sg69
(lp126
S'welcome'
p127
asbasbasbag62
(g78
g64
NtRp128
(dp129
g67
(dp130
sg76
g72
sg69
(lp131
g62
(g83
g64
NtRp132
(dp133
g67
(dp134
g87
g88
ssg76
g128
sg69
(lp135
g45
asbag62
(g83
g64
NtRp136
(dp137
g67
(dp138
g94
g95
ssg76
g128
sg69
(lp139
S':'
asbag62
(g83
g64
NtRp140
(dp141
g67
(dp142
sg76
g128
sg69
(lp143
g62
(g63
g64
NtRp144
(dp145
g67
(dp146
g75
I5
ssg76
g140
sg69
(lp147
g62
(g71
g64
NtRp148
(dp149
g67
(dp150
g75
I4
ssg76
Nsg69
(lp151
sbasbasbasbag62
(g78
g64
NtRp152
(dp153
g67
(dp154
sg76
g72
sg69
(lp155
g62
(g83
g64
NtRp156
(dp157
g67
(dp158
g87
g88
ssg76
g152
sg69
(lp159
S'body'
p160
asbag62
(g83
g64
NtRp161
(dp162
g67
(dp163
g94
g95
ssg76
g152
sg69
(lp164
S':'
asbag62
(g83
g64
NtRp165
(dp166
g67
(dp167
sg76
g152
sg69
(lp168
g62
(g63
g64
NtRp169
(dp170
g67
(dp171
g75
I5
ssg76
g165
sg69
(lp172
S'<cStringIO.StringO object at 0xa28c2a0>'
p173
asbasbasbag62
(g78
g64
NtRp174
(dp175
g67
(dp176
sg76
g72
sg69
(lp177
g62
(g83
g64
NtRp178
(dp179
g67
(dp180
g87
g88
ssg76
g174
sg69
(lp181
S'client'
p182
asbag62
(g83
g64
NtRp183
(dp184
g67
(dp185
g94
g95
ssg76
g174
sg69
(lp186
S':'
asbag62
(g83
g64
NtRp187
(dp188
g67
(dp189
sg76
g174
sg69
(lp190
g62
(g63
g64
NtRp191
(dp192
g67
(dp193
g75
I5
ssg76
g187
sg69
(lp194
S'186.32.48.60'
p195
asbasbasbag62
(g78
g64
NtRp196
(dp197
g67
(dp198
sg76
g72
sg69
(lp199
g62
(g83
g64
NtRp200
(dp201
g67
(dp202
g87
g88
ssg76
g196
sg69
(lp203
S'controller'
p204
asbag62
(g83
g64
NtRp205
(dp206
g67
(dp207
g94
g95
ssg76
g196
sg69
(lp208
S':'
asbag62
(g83
g64
NtRp209
(dp210
g67
(dp211
sg76
g196
sg69
(lp212
g62
(g63
g64
NtRp213
(dp214
g67
(dp215
g75
I5
ssg76
g209
sg69
(lp216
S'default'
p217
asbasbasbag62
(g78
g64
NtRp218
(dp219
g67
(dp220
sg76
g72
sg69
(lp221
g62
(g83
g64
NtRp222
(dp223
g67
(dp224
g87
g88
ssg76
g218
sg69
(lp225
S'cookies'
p226
asbag62
(g83
g64
NtRp227
(dp228
g67
(dp229
g94
g95
ssg76
g218
sg69
(lp230
S':'
asbag62
(g83
g64
NtRp231
(dp232
g67
(dp233
sg76
g218
sg69
(lp234
g62
(g63
g64
NtRp235
(dp236
g67
(dp237
g75
I5
ssg76
g231
sg69
(lp238
g62
(g71
g64
NtRp239
(dp240
g67
(dp241
g75
I4
ssg76
Nsg69
(lp242
g62
(g78
g64
NtRp243
(dp244
g67
(dp245
sg76
g239
sg69
(lp246
g62
(g83
g64
NtRp247
(dp248
g67
(dp249
g87
g88
ssg76
g243
sg69
(lp250
S'session_id_admin'
p251
asbag62
(g83
g64
NtRp252
(dp253
g67
(dp254
g94
g95
ssg76
g243
sg69
(lp255
S':'
asbag62
(g83
g64
NtRp256
(dp257
g67
(dp258
sg76
g243
sg69
(lp259
g62
(g63
g64
NtRp260
(dp261
g67
(dp262
g75
I4
ssg76
g256
sg69
(lp263
g62
(g71
g64
NtRp264
(dp265
g67
(dp266
g75
I3
ssg76
Nsg69
(lp267
g62
(g78
g64
NtRp268
(dp269
g67
(dp270
sg76
g264
sg69
(lp271
g62
(g83
g64
NtRp272
(dp273
g67
(dp274
g87
g88
ssg76
g268
sg69
(lp275
S'comment'
p276
asbag62
(g83
g64
NtRp277
(dp278
g67
(dp279
g94
g95
ssg76
g268
sg69
(lp280
S':'
asbag62
(g83
g64
NtRp281
(dp282
g67
(dp283
sg76
g268
sg69
(lp284
g62
(g63
g64
NtRp285
(dp286
g67
(dp287
g75
I3
ssg76
g281
sg69
(lp288
S''
asbasbasbag62
(g78
g64
NtRp289
(dp290
g67
(dp291
sg76
g264
sg69
(lp292
g62
(g83
g64
NtRp293
(dp294
g67
(dp295
g87
g88
ssg76
g289
sg69
(lp296
S'domain'
p297
asbag62
(g83
g64
NtRp298
(dp299
g67
(dp300
g94
g95
ssg76
g289
sg69
(lp301
S':'
asbag62
(g83
g64
NtRp302
(dp303
g67
(dp304
sg76
g289
sg69
(lp305
g62
(g63
g64
NtRp306
(dp307
g67
(dp308
g75
I3
ssg76
g302
sg69
(lp309
S''
asbasbasbag62
(g78
g64
NtRp310
(dp311
g67
(dp312
sg76
g264
sg69
(lp313
g62
(g83
g64
NtRp314
(dp315
g67
(dp316
g87
g88
ssg76
g310
sg69
(lp317
S'expires'
p318
asbag62
(g83
g64
NtRp319
(dp320
g67
(dp321
g94
g95
ssg76
g310
sg69
(lp322
S':'
asbag62
(g83
g64
NtRp323
(dp324
g67
(dp325
sg76
g310
sg69
(lp326
g62
(g63
g64
NtRp327
(dp328
g67
(dp329
g75
I3
ssg76
g323
sg69
(lp330
S''
asbasbasbag62
(g78
g64
NtRp331
(dp332
g67
(dp333
sg76
g264
sg69
(lp334
g62
(g83
g64
NtRp335
(dp336
g67
(dp337
g87
g88
ssg76
g331
sg69
(lp338
S'httponly'
p339
asbag62
(g83
g64
NtRp340
(dp341
g67
(dp342
g94
g95
ssg76
g331
sg69
(lp343
S':'
asbag62
(g83
g64
NtRp344
(dp345
g67
(dp346
sg76
g331
sg69
(lp347
g62
(g63
g64
NtRp348
(dp349
g67
(dp350
g75
I3
ssg76
g344
sg69
(lp351
S''
asbasbasbag62
(g78
g64
NtRp352
(dp353
g67
(dp354
sg76
g264
sg69
(lp355
g62
(g83
g64
NtRp356
(dp357
g67
(dp358
g87
g88
ssg76
g352
sg69
(lp359
S'max-age'
p360
asbag62
(g83
g64
NtRp361
(dp362
g67
(dp363
g94
g95
ssg76
g352
sg69
(lp364
S':'
asbag62
(g83
g64
NtRp365
(dp366
g67
(dp367
sg76
g352
sg69
(lp368
g62
(g63
g64
NtRp369
(dp370
g67
(dp371
g75
I3
ssg76
g365
sg69
(lp372
S''
asbasbasbag62
(g78
g64
NtRp373
(dp374
g67
(dp375
sg76
g264
sg69
(lp376
g62
(g83
g64
NtRp377
(dp378
g67
(dp379
g87
g88
ssg76
g373
sg69
(lp380
S'path'
p381
asbag62
(g83
g64
NtRp382
(dp383
g67
(dp384
g94
g95
ssg76
g373
sg69
(lp385
S':'
asbag62
(g83
g64
NtRp386
(dp387
g67
(dp388
sg76
g373
sg69
(lp389
g62
(g63
g64
NtRp390
(dp391
g67
(dp392
g75
I3
ssg76
g386
sg69
(lp393
S''
asbasbasbag62
(g78
g64
NtRp394
(dp395
g67
(dp396
sg76
g264
sg69
(lp397
g62
(g83
g64
NtRp398
(dp399
g67
(dp400
g87
g88
ssg76
g394
sg69
(lp401
S'secure'
p402
asbag62
(g83
g64
NtRp403
(dp404
g67
(dp405
g94
g95
ssg76
g394
sg69
(lp406
S':'
asbag62
(g83
g64
NtRp407
(dp408
g67
(dp409
sg76
g394
sg69
(lp410
g62
(g63
g64
NtRp411
(dp412
g67
(dp413
g75
I3
ssg76
g407
sg69
(lp414
S''
asbasbasbag62
(g78
g64
NtRp415
(dp416
g67
(dp417
sg76
g264
sg69
(lp418
g62
(g83
g64
NtRp419
(dp420
g67
(dp421
g87
g88
ssg76
g415
sg69
(lp422
S'version'
p423
asbag62
(g83
g64
NtRp424
(dp425
g67
(dp426
g94
g95
ssg76
g415
sg69
(lp427
S':'
asbag62
(g83
g64
NtRp428
(dp429
g67
(dp430
sg76
g415
sg69
(lp431
g62
(g63
g64
NtRp432
(dp433
g67
(dp434
g75
I3
ssg76
g428
sg69
(lp435
S''
asbasbasbasbasbasbasbag62
(g78
g64
NtRp436
(dp437
g67
(dp438
sg76
g239
sg69
(lp439
g62
(g83
g64
NtRp440
(dp441
g67
(dp442
g87
g88
ssg76
g436
sg69
(lp443
S'session_id_init'
p444
asbag62
(g83
g64
NtRp445
(dp446
g67
(dp447
g94
g95
ssg76
g436
sg69
(lp448
S':'
asbag62
(g83
g64
NtRp449
(dp450
g67
(dp451
sg76
g436
sg69
(lp452
g62
(g63
g64
NtRp453
(dp454
g67
(dp455
g75
I4
ssg76
g449
sg69
(lp456
g62
(g71
g64
NtRp457
(dp458
g67
(dp459
g75
I3
ssg76
Nsg69
(lp460
g62
(g78
g64
NtRp461
(dp462
g67
(dp463
sg76
g457
sg69
(lp464
g62
(g83
g64
NtRp465
(dp466
g67
(dp467
g87
g88
ssg76
g461
sg69
(lp468
g276
asbag62
(g83
g64
NtRp469
(dp470
g67
(dp471
g94
g95
ssg76
g461
sg69
(lp472
S':'
asbag62
(g83
g64
NtRp473
(dp474
g67
(dp475
sg76
g461
sg69
(lp476
g62
(g63
g64
NtRp477
(dp478
g67
(dp479
g75
I3
ssg76
g473
sg69
(lp480
S''
asbasbasbag62
(g78
g64
NtRp481
(dp482
g67
(dp483
sg76
g457
sg69
(lp484
g62
(g83
g64
NtRp485
(dp486
g67
(dp487
g87
g88
ssg76
g481
sg69
(lp488
g297
asbag62
(g83
g64
NtRp489
(dp490
g67
(dp491
g94
g95
ssg76
g481
sg69
(lp492
S':'
asbag62
(g83
g64
NtRp493
(dp494
g67
(dp495
sg76
g481
sg69
(lp496
g62
(g63
g64
NtRp497
(dp498
g67
(dp499
g75
I3
ssg76
g493
sg69
(lp500
S''
asbasbasbag62
(g78
g64
NtRp501
(dp502
g67
(dp503
sg76
g457
sg69
(lp504
g62
(g83
g64
NtRp505
(dp506
g67
(dp507
g87
g88
ssg76
g501
sg69
(lp508
g318
asbag62
(g83
g64
NtRp509
(dp510
g67
(dp511
g94
g95
ssg76
g501
sg69
(lp512
S':'
asbag62
(g83
g64
NtRp513
(dp514
g67
(dp515
sg76
g501
sg69
(lp516
g62
(g63
g64
NtRp517
(dp518
g67
(dp519
g75
I3
ssg76
g513
sg69
(lp520
S''
asbasbasbag62
(g78
g64
NtRp521
(dp522
g67
(dp523
sg76
g457
sg69
(lp524
g62
(g83
g64
NtRp525
(dp526
g67
(dp527
g87
g88
ssg76
g521
sg69
(lp528
g339
asbag62
(g83
g64
NtRp529
(dp530
g67
(dp531
g94
g95
ssg76
g521
sg69
(lp532
S':'
asbag62
(g83
g64
NtRp533
(dp534
g67
(dp535
sg76
g521
sg69
(lp536
g62
(g63
g64
NtRp537
(dp538
g67
(dp539
g75
I3
ssg76
g533
sg69
(lp540
S''
asbasbasbag62
(g78
g64
NtRp541
(dp542
g67
(dp543
sg76
g457
sg69
(lp544
g62
(g83
g64
NtRp545
(dp546
g67
(dp547
g87
g88
ssg76
g541
sg69
(lp548
g360
asbag62
(g83
g64
NtRp549
(dp550
g67
(dp551
g94
g95
ssg76
g541
sg69
(lp552
S':'
asbag62
(g83
g64
NtRp553
(dp554
g67
(dp555
sg76
g541
sg69
(lp556
g62
(g63
g64
NtRp557
(dp558
g67
(dp559
g75
I3
ssg76
g553
sg69
(lp560
S''
asbasbasbag62
(g78
g64
NtRp561
(dp562
g67
(dp563
sg76
g457
sg69
(lp564
g62
(g83
g64
NtRp565
(dp566
g67
(dp567
g87
g88
ssg76
g561
sg69
(lp568
g381
asbag62
(g83
g64
NtRp569
(dp570
g67
(dp571
g94
g95
ssg76
g561
sg69
(lp572
S':'
asbag62
(g83
g64
NtRp573
(dp574
g67
(dp575
sg76
g561
sg69
(lp576
g62
(g63
g64
NtRp577
(dp578
g67
(dp579
g75
I3
ssg76
g573
sg69
(lp580
S''
asbasbasbag62
(g78
g64
NtRp581
(dp582
g67
(dp583
sg76
g457
sg69
(lp584
g62
(g83
g64
NtRp585
(dp586
g67
(dp587
g87
g88
ssg76
g581
sg69
(lp588
g402
asbag62
(g83
g64
NtRp589
(dp590
g67
(dp591
g94
g95
ssg76
g581
sg69
(lp592
S':'
asbag62
(g83
g64
NtRp593
(dp594
g67
(dp595
sg76
g581
sg69
(lp596
g62
(g63
g64
NtRp597
(dp598
g67
(dp599
g75
I3
ssg76
g593
sg69
(lp600
S''
asbasbasbag62
(g78
g64
NtRp601
(dp602
g67
(dp603
sg76
g457
sg69
(lp604
g62
(g83
g64
NtRp605
(dp606
g67
(dp607
g87
g88
ssg76
g601
sg69
(lp608
g423
asbag62
(g83
g64
NtRp609
(dp610
g67
(dp611
g94
g95
ssg76
g601
sg69
(lp612
S':'
asbag62
(g83
g64
NtRp613
(dp614
g67
(dp615
sg76
g601
sg69
(lp616
g62
(g63
g64
NtRp617
(dp618
g67
(dp619
g75
I3
ssg76
g613
sg69
(lp620
S''
asbasbasbasbasbasbasbag62
(g78
g64
NtRp621
(dp622
g67
(dp623
sg76
g239
sg69
(lp624
g62
(g83
g64
NtRp625
(dp626
g67
(dp627
g87
g88
ssg76
g621
sg69
(lp628
S'session_id_welcome'
p629
asbag62
(g83
g64
NtRp630
(dp631
g67
(dp632
g94
g95
ssg76
g621
sg69
(lp633
S':'
asbag62
(g83
g64
NtRp634
(dp635
g67
(dp636
sg76
g621
sg69
(lp637
g62
(g63
g64
NtRp638
(dp639
g67
(dp640
g75
I4
ssg76
g634
sg69
(lp641
g62
(g71
g64
NtRp642
(dp643
g67
(dp644
g75
I3
ssg76
Nsg69
(lp645
g62
(g78
g64
NtRp646
(dp647
g67
(dp648
sg76
g642
sg69
(lp649
g62
(g83
g64
NtRp650
(dp651
g67
(dp652
g87
g88
ssg76
g646
sg69
(lp653
g276
asbag62
(g83
g64
NtRp654
(dp655
g67
(dp656
g94
g95
ssg76
g646
sg69
(lp657
S':'
asbag62
(g83
g64
NtRp658
(dp659
g67
(dp660
sg76
g646
sg69
(lp661
g62
(g63
g64
NtRp662
(dp663
g67
(dp664
g75
I3
ssg76
g658
sg69
(lp665
S''
asbasbasbag62
(g78
g64
NtRp666
(dp667
g67
(dp668
sg76
g642
sg69
(lp669
g62
(g83
g64
NtRp670
(dp671
g67
(dp672
g87
g88
ssg76
g666
sg69
(lp673
g297
asbag62
(g83
g64
NtRp674
(dp675
g67
(dp676
g94
g95
ssg76
g666
sg69
(lp677
S':'
asbag62
(g83
g64
NtRp678
(dp679
g67
(dp680
sg76
g666
sg69
(lp681
g62
(g63
g64
NtRp682
(dp683
g67
(dp684
g75
I3
ssg76
g678
sg69
(lp685
S''
asbasbasbag62
(g78
g64
NtRp686
(dp687
g67
(dp688
sg76
g642
sg69
(lp689
g62
(g83
g64
NtRp690
(dp691
g67
(dp692
g87
g88
ssg76
g686
sg69
(lp693
g318
asbag62
(g83
g64
NtRp694
(dp695
g67
(dp696
g94
g95
ssg76
g686
sg69
(lp697
S':'
asbag62
(g83
g64
NtRp698
(dp699
g67
(dp700
sg76
g686
sg69
(lp701
g62
(g63
g64
NtRp702
(dp703
g67
(dp704
g75
I3
ssg76
g698
sg69
(lp705
S''
asbasbasbag62
(g78
g64
NtRp706
(dp707
g67
(dp708
sg76
g642
sg69
(lp709
g62
(g83
g64
NtRp710
(dp711
g67
(dp712
g87
g88
ssg76
g706
sg69
(lp713
g339
asbag62
(g83
g64
NtRp714
(dp715
g67
(dp716
g94
g95
ssg76
g706
sg69
(lp717
S':'
asbag62
(g83
g64
NtRp718
(dp719
g67
(dp720
sg76
g706
sg69
(lp721
g62
(g63
g64
NtRp722
(dp723
g67
(dp724
g75
I3
ssg76
g718
sg69
(lp725
S''
asbasbasbag62
(g78
g64
NtRp726
(dp727
g67
(dp728
sg76
g642
sg69
(lp729
g62
(g83
g64
NtRp730
(dp731
g67
(dp732
g87
g88
ssg76
g726
sg69
(lp733
g360
asbag62
(g83
g64
NtRp734
(dp735
g67
(dp736
g94
g95
ssg76
g726
sg69
(lp737
S':'
asbag62
(g83
g64
NtRp738
(dp739
g67
(dp740
sg76
g726
sg69
(lp741
g62
(g63
g64
NtRp742
(dp743
g67
(dp744
g75
I3
ssg76
g738
sg69
(lp745
S''
asbasbasbag62
(g78
g64
NtRp746
(dp747
g67
(dp748
sg76
g642
sg69
(lp749
g62
(g83
g64
NtRp750
(dp751
g67
(dp752
g87
g88
ssg76
g746
sg69
(lp753
g381
asbag62
(g83
g64
NtRp754
(dp755
g67
(dp756
g94
g95
ssg76
g746
sg69
(lp757
S':'
asbag62
(g83
g64
NtRp758
(dp759
g67
(dp760
sg76
g746
sg69
(lp761
g62
(g63
g64
NtRp762
(dp763
g67
(dp764
g75
I3
ssg76
g758
sg69
(lp765
S''
asbasbasbag62
(g78
g64
NtRp766
(dp767
g67
(dp768
sg76
g642
sg69
(lp769
g62
(g83
g64
NtRp770
(dp771
g67
(dp772
g87
g88
ssg76
g766
sg69
(lp773
g402
asbag62
(g83
g64
NtRp774
(dp775
g67
(dp776
g94
g95
ssg76
g766
sg69
(lp777
S':'
asbag62
(g83
g64
NtRp778
(dp779
g67
(dp780
sg76
g766
sg69
(lp781
g62
(g63
g64
NtRp782
(dp783
g67
(dp784
g75
I3
ssg76
g778
sg69
(lp785
S''
asbasbasbag62
(g78
g64
NtRp786
(dp787
g67
(dp788
sg76
g642
sg69
(lp789
g62
(g83
g64
NtRp790
(dp791
g67
(dp792
g87
g88
ssg76
g786
sg69
(lp793
g423
asbag62
(g83
g64
NtRp794
(dp795
g67
(dp796
g94
g95
ssg76
g786
sg69
(lp797
S':'
asbag62
(g83
g64
NtRp798
(dp799
g67
(dp800
sg76
g786
sg69
(lp801
g62
(g63
g64
NtRp802
(dp803
g67
(dp804
g75
I3
ssg76
g798
sg69
(lp805
S''
asbasbasbasbasbasbasbasbasbasbasbag62
(g78
g64
NtRp806
(dp807
g67
(dp808
sg76
g72
sg69
(lp809
g62
(g83
g64
NtRp810
(dp811
g67
(dp812
g87
g88
ssg76
g806
sg69
(lp813
S'env'
p814
asbag62
(g83
g64
NtRp815
(dp816
g67
(dp817
g94
g95
ssg76
g806
sg69
(lp818
S':'
asbag62
(g83
g64
NtRp819
(dp820
g67
(dp821
sg76
g806
sg69
(lp822
g62
(g63
g64
NtRp823
(dp824
g67
(dp825
g75
I5
ssg76
g819
sg69
(lp826
g62
(g71
g64
NtRp827
(dp828
g67
(dp829
g75
I4
ssg76
Nsg69
(lp830
g62
(g78
g64
NtRp831
(dp832
g67
(dp833
sg76
g827
sg69
(lp834
g62
(g83
g64
NtRp835
(dp836
g67
(dp837
g87
g88
ssg76
g831
sg69
(lp838
S'app_folders'
p839
asbag62
(g83
g64
NtRp840
(dp841
g67
(dp842
g94
g95
ssg76
g831
sg69
(lp843
S':'
asbag62
(g83
g64
NtRp844
(dp845
g67
(dp846
sg76
g831
sg69
(lp847
g62
(g63
g64
NtRp848
(dp849
g67
(dp850
g75
I4
ssg76
g844
sg69
(lp851
S"set(['/home/arvin/web2py/applications/welcome/'])"
p852
asbasbasbag62
(g78
g64
NtRp853
(dp854
g67
(dp855
sg76
g827
sg69
(lp856
g62
(g83
g64
NtRp857
(dp858
g67
(dp859
g87
g88
ssg76
g853
sg69
(lp860
S'applications_parent'
p861
asbag62
(g83
g64
NtRp862
(dp863
g67
(dp864
g94
g95
ssg76
g853
sg69
(lp865
S':'
asbag62
(g83
g64
NtRp866
(dp867
g67
(dp868
sg76
g853
sg69
(lp869
g62
(g63
g64
NtRp870
(dp871
g67
(dp872
g75
I4
ssg76
g866
sg69
(lp873
S'/home/arvin/web2py'
p874
asbasbasbag62
(g78
g64
NtRp875
(dp876
g67
(dp877
sg76
g827
sg69
(lp878
g62
(g83
g64
NtRp879
(dp880
g67
(dp881
g87
g88
ssg76
g875
sg69
(lp882
S'content_length'
p883
asbag62
(g83
g64
NtRp884
(dp885
g67
(dp886
g94
g95
ssg76
g875
sg69
(lp887
S':'
asbag62
(g83
g64
NtRp888
(dp889
g67
(dp890
sg76
g875
sg69
(lp891
g62
(g63
g64
NtRp892
(dp893
g67
(dp894
g75
I4
ssg76
g888
sg69
(lp895
S''
asbasbasbag62
(g78
g64
NtRp896
(dp897
g67
(dp898
sg76
g827
sg69
(lp899
g62
(g83
g64
NtRp900
(dp901
g67
(dp902
g87
g88
ssg76
g896
sg69
(lp903
S'content_type'
p904
asbag62
(g83
g64
NtRp905
(dp906
g67
(dp907
g94
g95
ssg76
g896
sg69
(lp908
S':'
asbag62
(g83
g64
NtRp909
(dp910
g67
(dp911
sg76
g896
sg69
(lp912
g62
(g63
g64
NtRp913
(dp914
g67
(dp915
g75
I4
ssg76
g909
sg69
(lp916
S''
asbasbasbag62
(g78
g64
NtRp917
(dp918
g67
(dp919
sg76
g827
sg69
(lp920
g62
(g83
g64
NtRp921
(dp922
g67
(dp923
g87
g88
ssg76
g917
sg69
(lp924
S'db_sessions'
p925
asbag62
(g83
g64
NtRp926
(dp927
g67
(dp928
g94
g95
ssg76
g917
sg69
(lp929
S':'
asbag62
(g83
g64
NtRp930
(dp931
g67
(dp932
sg76
g917
sg69
(lp933
g62
(g63
g64
NtRp934
(dp935
g67
(dp936
g75
I4
ssg76
g930
sg69
(lp937
S'set([])'
p938
asbasbasbag62
(g78
g64
NtRp939
(dp940
g67
(dp941
sg76
g827
sg69
(lp942
g62
(g83
g64
NtRp943
(dp944
g67
(dp945
g87
g88
ssg76
g939
sg69
(lp946
S'debugging'
p947
asbag62
(g83
g64
NtRp948
(dp949
g67
(dp950
g94
g95
ssg76
g939
sg69
(lp951
S':'
asbag62
(g83
g64
NtRp952
(dp953
g67
(dp954
sg76
g939
sg69
(lp955
g62
(g63
g64
NtRp956
(dp957
g67
(dp958
g75
I4
ssg76
g952
sg69
(lp959
g105
asbasbasbag62
(g78
g64
NtRp960
(dp961
g67
(dp962
sg76
g827
sg69
(lp963
g62
(g83
g64
NtRp964
(dp965
g67
(dp966
g87
g88
ssg76
g960
sg69
(lp967
S'document_root'
p968
asbag62
(g83
g64
NtRp969
(dp970
g67
(dp971
g94
g95
ssg76
g960
sg69
(lp972
S':'
asbag62
(g83
g64
NtRp973
(dp974
g67
(dp975
sg76
g960
sg69
(lp976
g62
(g63
g64
NtRp977
(dp978
g67
(dp979
g75
I4
ssg76
g973
sg69
(lp980
S'/usr/local/nginx/html'
p981
asbasbasbag62
(g78
g64
NtRp982
(dp983
g67
(dp984
sg76
g827
sg69
(lp985
g62
(g83
g64
NtRp986
(dp987
g67
(dp988
g87
g88
ssg76
g982
sg69
(lp989
S'gluon_parent'
p990
asbag62
(g83
g64
NtRp991
(dp992
g67
(dp993
g94
g95
ssg76
g982
sg69
(lp994
S':'
asbag62
(g83
g64
NtRp995
(dp996
g67
(dp997
sg76
g982
sg69
(lp998
g62
(g63
g64
NtRp999
(dp1000
g67
(dp1001
g75
I4
ssg76
g995
sg69
(lp1002
g874
asbasbasbag62
(g78
g64
NtRp1003
(dp1004
g67
(dp1005
sg76
g827
sg69
(lp1006
g62
(g83
g64
NtRp1007
(dp1008
g67
(dp1009
g87
g88
ssg76
g1003
sg69
(lp1010
S'http_accept'
p1011
asbag62
(g83
g64
NtRp1012
(dp1013
g67
(dp1014
g94
g95
ssg76
g1003
sg69
(lp1015
S':'
asbag62
(g83
g64
NtRp1016
(dp1017
g67
(dp1018
sg76
g1003
sg69
(lp1019
g62
(g63
g64
NtRp1020
(dp1021
g67
(dp1022
g75
I4
ssg76
g1016
sg69
(lp1023
S'text/html,application/xhtml+xml,application/xml;q=0.9,*/*;q=0.8'
p1024
asbasbasbag62
(g78
g64
NtRp1025
(dp1026
g67
(dp1027
sg76
g827
sg69
(lp1028
g62
(g83
g64
NtRp1029
(dp1030
g67
(dp1031
g87
g88
ssg76
g1025
sg69
(lp1032
S'http_accept_charset'
p1033
asbag62
(g83
g64
NtRp1034
(dp1035
g67
(dp1036
g94
g95
ssg76
g1025
sg69
(lp1037
S':'
asbag62
(g83
g64
NtRp1038
(dp1039
g67
(dp1040
sg76
g1025
sg69
(lp1041
g62
(g63
g64
NtRp1042
(dp1043
g67
(dp1044
g75
I4
ssg76
g1038
sg69
(lp1045
S'ISO-8859-1,utf-8;q=0.7,*;q=0.7'
p1046
asbasbasbag62
(g78
g64
NtRp1047
(dp1048
g67
(dp1049
sg76
g827
sg69
(lp1050
g62
(g83
g64
NtRp1051
(dp1052
g67
(dp1053
g87
g88
ssg76
g1047
sg69
(lp1054
S'http_accept_encoding'
p1055
asbag62
(g83
g64
NtRp1056
(dp1057
g67
(dp1058
g94
g95
ssg76
g1047
sg69
(lp1059
S':'
asbag62
(g83
g64
NtRp1060
(dp1061
g67
(dp1062
sg76
g1047
sg69
(lp1063
g62
(g63
g64
NtRp1064
(dp1065
g67
(dp1066
g75
I4
ssg76
g1060
sg69
(lp1067
S'gzip, deflate'
p1068
asbasbasbag62
(g78
g64
NtRp1069
(dp1070
g67
(dp1071
sg76
g827
sg69
(lp1072
g62
(g83
g64
NtRp1073
(dp1074
g67
(dp1075
g87
g88
ssg76
g1069
sg69
(lp1076
S'http_accept_language'
p1077
asbag62
(g83
g64
NtRp1078
(dp1079
g67
(dp1080
g94
g95
ssg76
g1069
sg69
(lp1081
S':'
asbag62
(g83
g64
NtRp1082
(dp1083
g67
(dp1084
sg76
g1069
sg69
(lp1085
g62
(g63
g64
NtRp1086
(dp1087
g67
(dp1088
g75
I4
ssg76
g1082
sg69
(lp1089
S'en-us,en;q=0.5'
p1090
asbasbasbag62
(g78
g64
NtRp1091
(dp1092
g67
(dp1093
sg76
g827
sg69
(lp1094
g62
(g83
g64
NtRp1095
(dp1096
g67
(dp1097
g87
g88
ssg76
g1091
sg69
(lp1098
S'http_connection'
p1099
asbag62
(g83
g64
NtRp1100
(dp1101
g67
(dp1102
g94
g95
ssg76
g1091
sg69
(lp1103
S':'
asbag62
(g83
g64
NtRp1104
(dp1105
g67
(dp1106
sg76
g1091
sg69
(lp1107
g62
(g63
g64
NtRp1108
(dp1109
g67
(dp1110
g75
I4
ssg76
g1104
sg69
(lp1111
S'keep-alive'
p1112
asbasbasbag62
(g78
g64
NtRp1113
(dp1114
g67
(dp1115
sg76
g827
sg69
(lp1116
g62
(g83
g64
NtRp1117
(dp1118
g67
(dp1119
g87
g88
ssg76
g1113
sg69
(lp1120
S'http_cookie'
p1121
asbag62
(g83
g64
NtRp1122
(dp1123
g67
(dp1124
g94
g95
ssg76
g1113
sg69
(lp1125
S':'
asbag62
(g83
g64
NtRp1126
(dp1127
g67
(dp1128
sg76
g1113
sg69
(lp1129
g62
(g63
g64
NtRp1130
(dp1131
g67
(dp1132
g75
I4
ssg76
g1126
sg69
(lp1133
S'__utma=159863860.1937463137.1307715134.1308598504.1308686225.26; __utmz=159863860.1307715134.1.1.utmcsr=(direct)|utmccn=(direct)|utmcmd=(none); session_id_init=186.32.48.60-302c03b0-d800-439d-9ea0-600a4ab492a9; session_id_admin=186.32.48.60-cf518a5d-2337-45cf-9e57-dadf486628d0; __utmb=159863860.2.10.1308686225; __utmc=159863860; session_id_welcome=186.32.48.60-9dd50004-3126-421e-8ced-491be3f5cbaa'
p1134
asbasbasbag62
(g78
g64
NtRp1135
(dp1136
g67
(dp1137
sg76
g827
sg69
(lp1138
g62
(g83
g64
NtRp1139
(dp1140
g67
(dp1141
g87
g88
ssg76
g1135
sg69
(lp1142
S'http_host'
p1143
asbag62
(g83
g64
NtRp1144
(dp1145
g67
(dp1146
g94
g95
ssg76
g1135
sg69
(lp1147
S':'
asbag62
(g83
g64
NtRp1148
(dp1149
g67
(dp1150
sg76
g1135
sg69
(lp1151
g62
(g63
g64
NtRp1152
(dp1153
g67
(dp1154
g75
I4
ssg76
g1148
sg69
(lp1155
S'a.xchg.com'
p1156
asbasbasbag62
(g78
g64
NtRp1157
(dp1158
g67
(dp1159
sg76
g827
sg69
(lp1160
g62
(g83
g64
NtRp1161
(dp1162
g67
(dp1163
g87
g88
ssg76
g1157
sg69
(lp1164
S'http_keep_alive'
p1165
asbag62
(g83
g64
NtRp1166
(dp1167
g67
(dp1168
g94
g95
ssg76
g1157
sg69
(lp1169
S':'
asbag62
(g83
g64
NtRp1170
(dp1171
g67
(dp1172
sg76
g1157
sg69
(lp1173
g62
(g63
g64
NtRp1174
(dp1175
g67
(dp1176
g75
I4
ssg76
g1170
sg69
(lp1177
S'115'
p1178
asbasbasbag62
(g78
g64
NtRp1179
(dp1180
g67
(dp1181
sg76
g827
sg69
(lp1182
g62
(g83
g64
NtRp1183
(dp1184
g67
(dp1185
g87
g88
ssg76
g1179
sg69
(lp1186
S'http_referer'
p1187
asbag62
(g83
g64
NtRp1188
(dp1189
g67
(dp1190
g94
g95
ssg76
g1179
sg69
(lp1191
S':'
asbag62
(g83
g64
NtRp1192
(dp1193
g67
(dp1194
sg76
g1179
sg69
(lp1195
g62
(g63
g64
NtRp1196
(dp1197
g67
(dp1198
g75
I4
ssg76
g1192
sg69
(lp1199
S'https://a.xchg.com/admin/default/site'
p1200
asbasbasbag62
(g78
g64
NtRp1201
(dp1202
g67
(dp1203
sg76
g827
sg69
(lp1204
g62
(g83
g64
NtRp1205
(dp1206
g67
(dp1207
g87
g88
ssg76
g1201
sg69
(lp1208
S'http_user_agent'
p1209
asbag62
(g83
g64
NtRp1210
(dp1211
g67
(dp1212
g94
g95
ssg76
g1201
sg69
(lp1213
S':'
asbag62
(g83
g64
NtRp1214
(dp1215
g67
(dp1216
sg76
g1201
sg69
(lp1217
g62
(g63
g64
NtRp1218
(dp1219
g67
(dp1220
g75
I4
ssg76
g1214
sg69
(lp1221
S'Mozilla/5.0 (Windows NT 6.1; WOW64; rv:2.0.1) Gecko/20100101 Firefox/4.0.1'
p1222
asbasbasbag62
(g78
g64
NtRp1223
(dp1224
g67
(dp1225
sg76
g827
sg69
(lp1226
g62
(g83
g64
NtRp1227
(dp1228
g67
(dp1229
g87
g88
ssg76
g1223
sg69
(lp1230
S'https'
p1231
asbag62
(g83
g64
NtRp1232
(dp1233
g67
(dp1234
g94
g95
ssg76
g1223
sg69
(lp1235
S':'
asbag62
(g83
g64
NtRp1236
(dp1237
g67
(dp1238
sg76
g1223
sg69
(lp1239
g62
(g63
g64
NtRp1240
(dp1241
g67
(dp1242
g75
I4
ssg76
g1236
sg69
(lp1243
S'on'
p1244
asbasbasbag62
(g78
g64
NtRp1245
(dp1246
g67
(dp1247
sg76
g827
sg69
(lp1248
g62
(g83
g64
NtRp1249
(dp1250
g67
(dp1251
g87
g88
ssg76
g1245
sg69
(lp1252
S'path_info'
p1253
asbag62
(g83
g64
NtRp1254
(dp1255
g67
(dp1256
g94
g95
ssg76
g1245
sg69
(lp1257
S':'
asbag62
(g83
g64
NtRp1258
(dp1259
g67
(dp1260
sg76
g1245
sg69
(lp1261
g62
(g63
g64
NtRp1262
(dp1263
g67
(dp1264
g75
I4
ssg76
g1258
sg69
(lp1265
S'/welcome/default/index'
p1266
asbasbasbag62
(g78
g64
NtRp1267
(dp1268
g67
(dp1269
sg76
g827
sg69
(lp1270
g62
(g83
g64
NtRp1271
(dp1272
g67
(dp1273
g87
g88
ssg76
g1267
sg69
(lp1274
S'query_string'
p1275
asbag62
(g83
g64
NtRp1276
(dp1277
g67
(dp1278
g94
g95
ssg76
g1267
sg69
(lp1279
S':'
asbag62
(g83
g64
NtRp1280
(dp1281
g67
(dp1282
sg76
g1267
sg69
(lp1283
g62
(g63
g64
NtRp1284
(dp1285
g67
(dp1286
g75
I4
ssg76
g1280
sg69
(lp1287
S''
asbasbasbag62
(g78
g64
NtRp1288
(dp1289
g67
(dp1290
sg76
g827
sg69
(lp1291
g62
(g83
g64
NtRp1292
(dp1293
g67
(dp1294
g87
g88
ssg76
g1288
sg69
(lp1295
S'remote_addr'
p1296
asbag62
(g83
g64
NtRp1297
(dp1298
g67
(dp1299
g94
g95
ssg76
g1288
sg69
(lp1300
S':'
asbag62
(g83
g64
NtRp1301
(dp1302
g67
(dp1303
sg76
g1288
sg69
(lp1304
g62
(g63
g64
NtRp1305
(dp1306
g67
(dp1307
g75
I4
ssg76
g1301
sg69
(lp1308
g195
asbasbasbag62
(g78
g64
NtRp1309
(dp1310
g67
(dp1311
sg76
g827
sg69
(lp1312
g62
(g83
g64
NtRp1313
(dp1314
g67
(dp1315
g87
g88
ssg76
g1309
sg69
(lp1316
S'remote_port'
p1317
asbag62
(g83
g64
NtRp1318
(dp1319
g67
(dp1320
g94
g95
ssg76
g1309
sg69
(lp1321
S':'
asbag62
(g83
g64
NtRp1322
(dp1323
g67
(dp1324
sg76
g1309
sg69
(lp1325
g62
(g63
g64
NtRp1326
(dp1327
g67
(dp1328
g75
I4
ssg76
g1322
sg69
(lp1329
S'62911'
p1330
asbasbasbag62
(g78
g64
NtRp1331
(dp1332
g67
(dp1333
sg76
g827
sg69
(lp1334
g62
(g83
g64
NtRp1335
(dp1336
g67
(dp1337
g87
g88
ssg76
g1331
sg69
(lp1338
S'request_method'
p1339
asbag62
(g83
g64
NtRp1340
(dp1341
g67
(dp1342
g94
g95
ssg76
g1331
sg69
(lp1343
S':'
asbag62
(g83
g64
NtRp1344
(dp1345
g67
(dp1346
sg76
g1331
sg69
(lp1347
g62
(g63
g64
NtRp1348
(dp1349
g67
(dp1350
g75
I4
ssg76
g1344
sg69
(lp1351
S'GET'
p1352
asbasbasbag62
(g78
g64
NtRp1353
(dp1354
g67
(dp1355
sg76
g827
sg69
(lp1356
g62
(g83
g64
NtRp1357
(dp1358
g67
(dp1359
g87
g88
ssg76
g1353
sg69
(lp1360
S'request_uri'
p1361
asbag62
(g83
g64
NtRp1362
(dp1363
g67
(dp1364
g94
g95
ssg76
g1353
sg69
(lp1365
S':'
asbag62
(g83
g64
NtRp1366
(dp1367
g67
(dp1368
sg76
g1353
sg69
(lp1369
g62
(g63
g64
NtRp1370
(dp1371
g67
(dp1372
g75
I4
ssg76
g1366
sg69
(lp1373
S'/welcome/default/index'
p1374
asbasbasbag62
(g78
g64
NtRp1375
(dp1376
g67
(dp1377
sg76
g827
sg69
(lp1378
g62
(g83
g64
NtRp1379
(dp1380
g67
(dp1381
g87
g88
ssg76
g1375
sg69
(lp1382
S'server_name'
p1383
asbag62
(g83
g64
NtRp1384
(dp1385
g67
(dp1386
g94
g95
ssg76
g1375
sg69
(lp1387
S':'
asbag62
(g83
g64
NtRp1388
(dp1389
g67
(dp1390
sg76
g1375
sg69
(lp1391
g62
(g63
g64
NtRp1392
(dp1393
g67
(dp1394
g75
I4
ssg76
g1388
sg69
(lp1395
S'a.xchg.com'
p1396
asbasbasbag62
(g78
g64
NtRp1397
(dp1398
g67
(dp1399
sg76
g827
sg69
(lp1400
g62
(g83
g64
NtRp1401
(dp1402
g67
(dp1403
g87
g88
ssg76
g1397
sg69
(lp1404
S'server_port'
p1405
asbag62
(g83
g64
NtRp1406
(dp1407
g67
(dp1408
g94
g95
ssg76
g1397
sg69
(lp1409
S':'
asbag62
(g83
g64
NtRp1410
(dp1411
g67
(dp1412
sg76
g1397
sg69
(lp1413
g62
(g63
g64
NtRp1414
(dp1415
g67
(dp1416
g75
I4
ssg76
g1410
sg69
(lp1417
S'443'
p1418
asbasbasbag62
(g78
g64
NtRp1419
(dp1420
g67
(dp1421
sg76
g827
sg69
(lp1422
g62
(g83
g64
NtRp1423
(dp1424
g67
(dp1425
g87
g88
ssg76
g1419
sg69
(lp1426
S'server_protocol'
p1427
asbag62
(g83
g64
NtRp1428
(dp1429
g67
(dp1430
g94
g95
ssg76
g1419
sg69
(lp1431
S':'
asbag62
(g83
g64
NtRp1432
(dp1433
g67
(dp1434
sg76
g1419
sg69
(lp1435
g62
(g63
g64
NtRp1436
(dp1437
g67
(dp1438
g75
I4
ssg76
g1432
sg69
(lp1439
S'HTTP/1.1'
p1440
asbasbasbag62
(g78
g64
NtRp1441
(dp1442
g67
(dp1443
sg76
g827
sg69
(lp1444
g62
(g83
g64
NtRp1445
(dp1446
g67
(dp1447
g87
g88
ssg76
g1441
sg69
(lp1448
S'uwsgi_version'
p1449
asbag62
(g83
g64
NtRp1450
(dp1451
g67
(dp1452
g94
g95
ssg76
g1441
sg69
(lp1453
S':'
asbag62
(g83
g64
NtRp1454
(dp1455
g67
(dp1456
sg76
g1441
sg69
(lp1457
g62
(g63
g64
NtRp1458
(dp1459
g67
(dp1460
g75
I4
ssg76
g1454
sg69
(lp1461
S'0.9.6.8'
p1462
asbasbasbag62
(g78
g64
NtRp1463
(dp1464
g67
(dp1465
sg76
g827
sg69
(lp1466
g62
(g83
g64
NtRp1467
(dp1468
g67
(dp1469
g87
g88
ssg76
g1463
sg69
(lp1470
S'web2py_path'
p1471
asbag62
(g83
g64
NtRp1472
(dp1473
g67
(dp1474
g94
g95
ssg76
g1463
sg69
(lp1475
S':'
asbag62
(g83
g64
NtRp1476
(dp1477
g67
(dp1478
sg76
g1463
sg69
(lp1479
g62
(g63
g64
NtRp1480
(dp1481
g67
(dp1482
g75
I4
ssg76
g1476
sg69
(lp1483
g874
asbasbasbag62
(g78
g64
NtRp1484
(dp1485
g67
(dp1486
sg76
g827
sg69
(lp1487
g62
(g83
g64
NtRp1488
(dp1489
g67
(dp1490
g87
g88
ssg76
g1484
sg69
(lp1491
S'web2py_version'
p1492
asbag62
(g83
g64
NtRp1493
(dp1494
g67
(dp1495
g94
g95
ssg76
g1484
sg69
(lp1496
S':'
asbag62
(g83
g64
NtRp1497
(dp1498
g67
(dp1499
sg76
g1484
sg69
(lp1500
g62
(g63
g64
NtRp1501
(dp1502
g67
(dp1503
g75
I4
ssg76
g1497
sg69
(lp1504
S'Version 1.96.4 (2011-06-15 22:09:34)\n'
p1505
asbasbasbag62
(g78
g64
NtRp1506
(dp1507
g67
(dp1508
sg76
g827
sg69
(lp1509
g62
(g83
g64
NtRp1510
(dp1511
g67
(dp1512
g87
g88
ssg76
g1506
sg69
(lp1513
S'wsgi_errors'
p1514
asbag62
(g83
g64
NtRp1515
(dp1516
g67
(dp1517
g94
g95
ssg76
g1506
sg69
(lp1518
S':'
asbag62
(g83
g64
NtRp1519
(dp1520
g67
(dp1521
sg76
g1506
sg69
(lp1522
g62
(g63
g64
NtRp1523
(dp1524
g67
(dp1525
g75
I4
ssg76
g1519
sg69
(lp1526
S"<open file 'wsgi_input', mode 'w' at 0xa28e020>"
p1527
asbasbasbag62
(g78
g64
NtRp1528
(dp1529
g67
(dp1530
sg76
g827
sg69
(lp1531
g62
(g83
g64
NtRp1532
(dp1533
g67
(dp1534
g87
g88
ssg76
g1528
sg69
(lp1535
S'wsgi_file_wrapper'
p1536
asbag62
(g83
g64
NtRp1537
(dp1538
g67
(dp1539
g94
g95
ssg76
g1528
sg69
(lp1540
S':'
asbag62
(g83
g64
NtRp1541
(dp1542
g67
(dp1543
sg76
g1528
sg69
(lp1544
g62
(g63
g64
NtRp1545
(dp1546
g67
(dp1547
g75
I4
ssg76
g1541
sg69
(lp1548
S'<built-in function uwsgi_sendfile>'
p1549
asbasbasbag62
(g78
g64
NtRp1550
(dp1551
g67
(dp1552
sg76
g827
sg69
(lp1553
g62
(g83
g64
NtRp1554
(dp1555
g67
(dp1556
g87
g88
ssg76
g1550
sg69
(lp1557
S'wsgi_input'
p1558
asbag62
(g83
g64
NtRp1559
(dp1560
g67
(dp1561
g94
g95
ssg76
g1550
sg69
(lp1562
S':'
asbag62
(g83
g64
NtRp1563
(dp1564
g67
(dp1565
sg76
g1550
sg69
(lp1566
g62
(g63
g64
NtRp1567
(dp1568
g67
(dp1569
g75
I4
ssg76
g1563
sg69
(lp1570
S"<open file 'wsgi_input', mode 'r' at 0xa291f98>"
p1571
asbasbasbag62
(g78
g64
NtRp1572
(dp1573
g67
(dp1574
sg76
g827
sg69
(lp1575
g62
(g83
g64
NtRp1576
(dp1577
g67
(dp1578
g87
g88
ssg76
g1572
sg69
(lp1579
S'wsgi_multiprocess'
p1580
asbag62
(g83
g64
NtRp1581
(dp1582
g67
(dp1583
g94
g95
ssg76
g1572
sg69
(lp1584
S':'
asbag62
(g83
g64
NtRp1585
(dp1586
g67
(dp1587
sg76
g1572
sg69
(lp1588
g62
(g63
g64
NtRp1589
(dp1590
g67
(dp1591
g75
I4
ssg76
g1585
sg69
(lp1592
g105
asbasbasbag62
(g78
g64
NtRp1593
(dp1594
g67
(dp1595
sg76
g827
sg69
(lp1596
g62
(g83
g64
NtRp1597
(dp1598
g67
(dp1599
g87
g88
ssg76
g1593
sg69
(lp1600
S'wsgi_multithread'
p1601
asbag62
(g83
g64
NtRp1602
(dp1603
g67
(dp1604
g94
g95
ssg76
g1593
sg69
(lp1605
S':'
asbag62
(g83
g64
NtRp1606
(dp1607
g67
(dp1608
sg76
g1593
sg69
(lp1609
g62
(g63
g64
NtRp1610
(dp1611
g67
(dp1612
g75
I4
ssg76
g1606
sg69
(lp1613
g105
asbasbasbag62
(g78
g64
NtRp1614
(dp1615
g67
(dp1616
sg76
g827
sg69
(lp1617
g62
(g83
g64
NtRp1618
(dp1619
g67
(dp1620
g87
g88
ssg76
g1614
sg69
(lp1621
S'wsgi_run_once'
p1622
asbag62
(g83
g64
NtRp1623
(dp1624
g67
(dp1625
g94
g95
ssg76
g1614
sg69
(lp1626
S':'
asbag62
(g83
g64
NtRp1627
(dp1628
g67
(dp1629
sg76
g1614
sg69
(lp1630
g62
(g63
g64
NtRp1631
(dp1632
g67
(dp1633
g75
I4
ssg76
g1627
sg69
(lp1634
g105
asbasbasbag62
(g78
g64
NtRp1635
(dp1636
g67
(dp1637
sg76
g827
sg69
(lp1638
g62
(g83
g64
NtRp1639
(dp1640
g67
(dp1641
g87
g88
ssg76
g1635
sg69
(lp1642
S'wsgi_url_scheme'
p1643
asbag62
(g83
g64
NtRp1644
(dp1645
g67
(dp1646
g94
g95
ssg76
g1635
sg69
(lp1647
S':'
asbag62
(g83
g64
NtRp1648
(dp1649
g67
(dp1650
sg76
g1635
sg69
(lp1651
g62
(g63
g64
NtRp1652
(dp1653
g67
(dp1654
g75
I4
ssg76
g1648
sg69
(lp1655
S'https'
p1656
asbasbasbag62
(g78
g64
NtRp1657
(dp1658
g67
(dp1659
sg76
g827
sg69
(lp1660
g62
(g83
g64
NtRp1661
(dp1662
g67
(dp1663
g87
g88
ssg76
g1657
sg69
(lp1664
S'wsgi_version'
p1665
asbag62
(g83
g64
NtRp1666
(dp1667
g67
(dp1668
g94
g95
ssg76
g1657
sg69
(lp1669
S':'
asbag62
(g83
g64
NtRp1670
(dp1671
g67
(dp1672
sg76
g1657
sg69
(lp1673
g62
(g63
g64
NtRp1674
(dp1675
g67
(dp1676
g75
I4
ssg76
g1670
sg69
(lp1677
g62
(g71
g64
NtRp1678
(dp1679
g67
(dp1680
g75
I3
ssg76
Nsg69
(lp1681
g62
(g78
g64
NtRp1682
(dp1683
g67
(dp1684
sg76
g1678
sg69
(lp1685
g62
(g83
g64
NtRp1686
(dp1687
g67
(dp1688
sg76
g1682
sg69
(lp1689
g62
(g63
g64
NtRp1690
(dp1691
g67
(dp1692
g75
I3
ssg76
g1686
sg69
(lp1693
S'1'
asbasbasbag62
(g78
g64
NtRp1694
(dp1695
g67
(dp1696
sg76
g1678
sg69
(lp1697
g62
(g83
g64
NtRp1698
(dp1699
g67
(dp1700
sg76
g1694
sg69
(lp1701
g62
(g63
g64
NtRp1702
(dp1703
g67
(dp1704
g75
I3
ssg76
g1698
sg69
(lp1705
S'0'
asbasbasbasbasbasbasbasbasbasbasbag62
(g78
g64
NtRp1706
(dp1707
g67
(dp1708
sg76
g72
sg69
(lp1709
g62
(g83
g64
NtRp1710
(dp1711
g67
(dp1712
g87
g88
ssg76
g1706
sg69
(lp1713
S'extension'
p1714
asbag62
(g83
g64
NtRp1715
(dp1716
g67
(dp1717
g94
g95
ssg76
g1706
sg69
(lp1718
S':'
asbag62
(g83
g64
NtRp1719
(dp1720
g67
(dp1721
sg76
g1706
sg69
(lp1722
g62
(g63
g64
NtRp1723
(dp1724
g67
(dp1725
g75
I5
ssg76
g1719
sg69
(lp1726
S'html'
p1727
asbasbasbag62
(g78
g64
NtRp1728
(dp1729
g67
(dp1730
sg76
g72
sg69
(lp1731
g62
(g83
g64
NtRp1732
(dp1733
g67
(dp1734
g87
g88
ssg76
g1728
sg69
(lp1735
S'folder'
p1736
asbag62
(g83
g64
NtRp1737
(dp1738
g67
(dp1739
g94
g95
ssg76
g1728
sg69
(lp1740
S':'
asbag62
(g83
g64
NtRp1741
(dp1742
g67
(dp1743
sg76
g1728
sg69
(lp1744
g62
(g63
g64
NtRp1745
(dp1746
g67
(dp1747
g75
I5
ssg76
g1741
sg69
(lp1748
S'/home/arvin/web2py/applications/welcome/'
p1749
asbasbasbag62
(g78
g64
NtRp1750
(dp1751
g67
(dp1752
sg76
g72
sg69
(lp1753
g62
(g83
g64
NtRp1754
(dp1755
g67
(dp1756
g87
g88
ssg76
g1750
sg69
(lp1757
S'function'
p1758
asbag62
(g83
g64
NtRp1759
(dp1760
g67
(dp1761
g94
g95
ssg76
g1750
sg69
(lp1762
S':'
asbag62
(g83
g64
NtRp1763
(dp1764
g67
(dp1765
sg76
g1750
sg69
(lp1766
g62
(g63
g64
NtRp1767
(dp1768
g67
(dp1769
g75
I5
ssg76
g1763
sg69
(lp1770
S'index'
p1771
asbasbasbag62
(g78
g64
NtRp1772
(dp1773
g67
(dp1774
sg76
g72
sg69
(lp1775
g62
(g83
g64
NtRp1776
(dp1777
g67
(dp1778
g87
g88
ssg76
g1772
sg69
(lp1779
S'get_vars'
p1780
asbag62
(g83
g64
NtRp1781
(dp1782
g67
(dp1783
g94
g95
ssg76
g1772
sg69
(lp1784
S':'
asbag62
(g83
g64
NtRp1785
(dp1786
g67
(dp1787
sg76
g1772
sg69
(lp1788
g62
(g63
g64
NtRp1789
(dp1790
g67
(dp1791
g75
I5
ssg76
g1785
sg69
(lp1792
g62
(g71
g64
NtRp1793
(dp1794
g67
(dp1795
g75
I4
ssg76
Nsg69
(lp1796
sbasbasbasbag62
(g78
g64
NtRp1797
(dp1798
g67
(dp1799
sg76
g72
sg69
(lp1800
g62
(g83
g64
NtRp1801
(dp1802
g67
(dp1803
g87
g88
ssg76
g1797
sg69
(lp1804
S'is_https'
p1805
asbag62
(g83
g64
NtRp1806
(dp1807
g67
(dp1808
g94
g95
ssg76
g1797
sg69
(lp1809
S':'
asbag62
(g83
g64
NtRp1810
(dp1811
g67
(dp1812
sg76
g1797
sg69
(lp1813
g62
(g63
g64
NtRp1814
(dp1815
g67
(dp1816
g75
I5
ssg76
g1810
sg69
(lp1817
S'True'
p1818
asbasbasbag62
(g78
g64
NtRp1819
(dp1820
g67
(dp1821
sg76
g72
sg69
(lp1822
g62
(g83
g64
NtRp1823
(dp1824
g67
(dp1825
g87
g88
ssg76
g1819
sg69
(lp1826
S'is_local'
p1827
asbag62
(g83
g64
NtRp1828
(dp1829
g67
(dp1830
g94
g95
ssg76
g1819
sg69
(lp1831
S':'
asbag62
(g83
g64
NtRp1832
(dp1833
g67
(dp1834
sg76
g1819
sg69
(lp1835
g62
(g63
g64
NtRp1836
(dp1837
g67
(dp1838
g75
I5
ssg76
g1832
sg69
(lp1839
g105
asbasbasbag62
(g78
g64
NtRp1840
(dp1841
g67
(dp1842
sg76
g72
sg69
(lp1843
g62
(g83
g64
NtRp1844
(dp1845
g67
(dp1846
g87
g88
ssg76
g1840
sg69
(lp1847
S'is_restful'
p1848
asbag62
(g83
g64
NtRp1849
(dp1850
g67
(dp1851
g94
g95
ssg76
g1840
sg69
(lp1852
S':'
asbag62
(g83
g64
NtRp1853
(dp1854
g67
(dp1855
sg76
g1840
sg69
(lp1856
g62
(g63
g64
NtRp1857
(dp1858
g67
(dp1859
g75
I5
ssg76
g1853
sg69
(lp1860
g105
asbasbasbag62
(g78
g64
NtRp1861
(dp1862
g67
(dp1863
sg76
g72
sg69
(lp1864
g62
(g83
g64
NtRp1865
(dp1866
g67
(dp1867
g87
g88
ssg76
g1861
sg69
(lp1868
S'now'
p1869
asbag62
(g83
g64
NtRp1870
(dp1871
g67
(dp1872
g94
g95
ssg76
g1861
sg69
(lp1873
S':'
asbag62
(g83
g64
NtRp1874
(dp1875
g67
(dp1876
sg76
g1861
sg69
(lp1877
g62
(g63
g64
NtRp1878
(dp1879
g67
(dp1880
g75
I5
ssg76
g1874
sg69
(lp1881
S'datetime.datetime(2011, 6, 21, 14, 26, 3, 199599)'
p1882
asbasbasbag62
(g78
g64
NtRp1883
(dp1884
g67
(dp1885
sg76
g72
sg69
(lp1886
g62
(g83
g64
NtRp1887
(dp1888
g67
(dp1889
g87
g88
ssg76
g1883
sg69
(lp1890
S'post_vars'
p1891
asbag62
(g83
g64
NtRp1892
(dp1893
g67
(dp1894
g94
g95
ssg76
g1883
sg69
(lp1895
S':'
asbag62
(g83
g64
NtRp1896
(dp1897
g67
(dp1898
sg76
g1883
sg69
(lp1899
g62
(g63
g64
NtRp1900
(dp1901
g67
(dp1902
g75
I5
ssg76
g1896
sg69
(lp1903
g62
(g71
g64
NtRp1904
(dp1905
g67
(dp1906
g75
I4
ssg76
Nsg69
(lp1907
sbasbasbasbag62
(g78
g64
NtRp1908
(dp1909
g67
(dp1910
sg76
g72
sg69
(lp1911
g62
(g83
g64
NtRp1912
(dp1913
g67
(dp1914
g87
g88
ssg76
g1908
sg69
(lp1915
S'url'
p1916
asbag62
(g83
g64
NtRp1917
(dp1918
g67
(dp1919
g94
g95
ssg76
g1908
sg69
(lp1920
S':'
asbag62
(g83
g64
NtRp1921
(dp1922
g67
(dp1923
sg76
g1908
sg69
(lp1924
g62
(g63
g64
NtRp1925
(dp1926
g67
(dp1927
g75
I5
ssg76
g1921
sg69
(lp1928
S'/welcome/default/index'
p1929
asbasbasbag62
(g78
g64
NtRp1930
(dp1931
g67
(dp1932
sg76
g72
sg69
(lp1933
g62
(g83
g64
NtRp1934
(dp1935
g67
(dp1936
g87
g88
ssg76
g1930
sg69
(lp1937
S'uuid'
p1938
asbag62
(g83
g64
NtRp1939
(dp1940
g67
(dp1941
g94
g95
ssg76
g1930
sg69
(lp1942
S':'
asbag62
(g83
g64
NtRp1943
(dp1944
g67
(dp1945
sg76
g1930
sg69
(lp1946
g62
(g63
g64
NtRp1947
(dp1948
g67
(dp1949
g75
I5
ssg76
g1943
sg69
(lp1950
S'welcome/186.32.48.60.2011-06-21.14-26-03.d8d55100-381d-4fd1-b83e-06db5304bdcd'
p1951
asbasbasbag62
(g78
g64
NtRp1952
(dp1953
g67
(dp1954
sg76
g72
sg69
(lp1955
g62
(g83
g64
NtRp1956
(dp1957
g67
(dp1958
g87
g88
ssg76
g1952
sg69
(lp1959
S'vars'
p1960
asbag62
(g83
g64
NtRp1961
(dp1962
g67
(dp1963
g94
g95
ssg76
g1952
sg69
(lp1964
S':'
asbag62
(g83
g64
NtRp1965
(dp1966
g67
(dp1967
sg76
g1952
sg69
(lp1968
g62
(g63
g64
NtRp1969
(dp1970
g67
(dp1971
g75
I5
ssg76
g1965
sg69
(lp1972
g62
(g71
g64
NtRp1973
(dp1974
g67
(dp1975
g75
I4
ssg76
Nsg69
(lp1976
sbasbasbasbag62
(g78
g64
NtRp1977
(dp1978
g67
(dp1979
sg76
g72
sg69
(lp1980
g62
(g83
g64
NtRp1981
(dp1982
g67
(dp1983
g87
g88
ssg76
g1977
sg69
(lp1984
S'wsgi'
p1985
asbag62
(g83
g64
NtRp1986
(dp1987
g67
(dp1988
g94
g95
ssg76
g1977
sg69
(lp1989
S':'
asbag62
(g83
g64
NtRp1990
(dp1991
g67
(dp1992
sg76
g1977
sg69
(lp1993
g62
(g63
g64
NtRp1994
(dp1995
g67
(dp1996
g75
I5
ssg76
g1990
sg69
(lp1997
g62
(g71
g64
NtRp1998
(dp1999
g67
(dp2000
g75
I4
ssg76
Nsg69
(lp2001
g62
(g78
g64
NtRp2002
(dp2003
g67
(dp2004
sg76
g1998
sg69
(lp2005
g62
(g83
g64
NtRp2006
(dp2007
g67
(dp2008
g87
g88
ssg76
g2002
sg69
(lp2009
S'environ'
p2010
asbag62
(g83
g64
NtRp2011
(dp2012
g67
(dp2013
g94
g95
ssg76
g2002
sg69
(lp2014
S':'
asbag62
(g83
g64
NtRp2015
(dp2016
g67
(dp2017
sg76
g2002
sg69
(lp2018
g62
(g63
g64
NtRp2019
(dp2020
g67
(dp2021
g75
I4
ssg76
g2015
sg69
(lp2022
g62
(g71
g64
NtRp2023
(dp2024
g67
(dp2025
g75
I3
ssg76
Nsg69
(lp2026
g62
(g78
g64
NtRp2027
(dp2028
g67
(dp2029
sg76
g2023
sg69
(lp2030
g62
(g83
g64
NtRp2031
(dp2032
g67
(dp2033
g87
g88
ssg76
g2027
sg69
(lp2034
S'CONTENT_LENGTH'
p2035
asbag62
(g83
g64
NtRp2036
(dp2037
g67
(dp2038
g94
g95
ssg76
g2027
sg69
(lp2039
S':'
asbag62
(g83
g64
NtRp2040
(dp2041
g67
(dp2042
sg76
g2027
sg69
(lp2043
g62
(g63
g64
NtRp2044
(dp2045
g67
(dp2046
g75
I3
ssg76
g2040
sg69
(lp2047
S''
asbasbasbag62
(g78
g64
NtRp2048
(dp2049
g67
(dp2050
sg76
g2023
sg69
(lp2051
g62
(g83
g64
NtRp2052
(dp2053
g67
(dp2054
g87
g88
ssg76
g2048
sg69
(lp2055
S'CONTENT_TYPE'
p2056
asbag62
(g83
g64
NtRp2057
(dp2058
g67
(dp2059
g94
g95
ssg76
g2048
sg69
(lp2060
S':'
asbag62
(g83
g64
NtRp2061
(dp2062
g67
(dp2063
sg76
g2048
sg69
(lp2064
g62
(g63
g64
NtRp2065
(dp2066
g67
(dp2067
g75
I3
ssg76
g2061
sg69
(lp2068
S''
asbasbasbag62
(g78
g64
NtRp2069
(dp2070
g67
(dp2071
sg76
g2023
sg69
(lp2072
g62
(g83
g64
NtRp2073
(dp2074
g67
(dp2075
g87
g88
ssg76
g2069
sg69
(lp2076
S'DOCUMENT_ROOT'
p2077
asbag62
(g83
g64
NtRp2078
(dp2079
g67
(dp2080
g94
g95
ssg76
g2069
sg69
(lp2081
S':'
asbag62
(g83
g64
NtRp2082
(dp2083
g67
(dp2084
sg76
g2069
sg69
(lp2085
g62
(g63
g64
NtRp2086
(dp2087
g67
(dp2088
g75
I3
ssg76
g2082
sg69
(lp2089
g981
asbasbasbag62
(g78
g64
NtRp2090
(dp2091
g67
(dp2092
sg76
g2023
sg69
(lp2093
g62
(g83
g64
NtRp2094
(dp2095
g67
(dp2096
g87
g88
ssg76
g2090
sg69
(lp2097
S'HTTPS'
p2098
asbag62
(g83
g64
NtRp2099
(dp2100
g67
(dp2101
g94
g95
ssg76
g2090
sg69
(lp2102
S':'
asbag62
(g83
g64
NtRp2103
(dp2104
g67
(dp2105
sg76
g2090
sg69
(lp2106
g62
(g63
g64
NtRp2107
(dp2108
g67
(dp2109
g75
I3
ssg76
g2103
sg69
(lp2110
g1244
asbasbasbag62
(g78
g64
NtRp2111
(dp2112
g67
(dp2113
sg76
g2023
sg69
(lp2114
g62
(g83
g64
NtRp2115
(dp2116
g67
(dp2117
g87
g88
ssg76
g2111
sg69
(lp2118
S'HTTP_ACCEPT'
p2119
asbag62
(g83
g64
NtRp2120
(dp2121
g67
(dp2122
g94
g95
ssg76
g2111
sg69
(lp2123
S':'
asbag62
(g83
g64
NtRp2124
(dp2125
g67
(dp2126
sg76
g2111
sg69
(lp2127
g62
(g63
g64
NtRp2128
(dp2129
g67
(dp2130
g75
I3
ssg76
g2124
sg69
(lp2131
g1024
asbasbasbag62
(g78
g64
NtRp2132
(dp2133
g67
(dp2134
sg76
g2023
sg69
(lp2135
g62
(g83
g64
NtRp2136
(dp2137
g67
(dp2138
g87
g88
ssg76
g2132
sg69
(lp2139
S'HTTP_ACCEPT_CHARSET'
p2140
asbag62
(g83
g64
NtRp2141
(dp2142
g67
(dp2143
g94
g95
ssg76
g2132
sg69
(lp2144
S':'
asbag62
(g83
g64
NtRp2145
(dp2146
g67
(dp2147
sg76
g2132
sg69
(lp2148
g62
(g63
g64
NtRp2149
(dp2150
g67
(dp2151
g75
I3
ssg76
g2145
sg69
(lp2152
g1046
asbasbasbag62
(g78
g64
NtRp2153
(dp2154
g67
(dp2155
sg76
g2023
sg69
(lp2156
g62
(g83
g64
NtRp2157
(dp2158
g67
(dp2159
g87
g88
ssg76
g2153
sg69
(lp2160
S'HTTP_ACCEPT_ENCODING'
p2161
asbag62
(g83
g64
NtRp2162
(dp2163
g67
(dp2164
g94
g95
ssg76
g2153
sg69
(lp2165
S':'
asbag62
(g83
g64
NtRp2166
(dp2167
g67
(dp2168
sg76
g2153
sg69
(lp2169
g62
(g63
g64
NtRp2170
(dp2171
g67
(dp2172
g75
I3
ssg76
g2166
sg69
(lp2173
g1068
asbasbasbag62
(g78
g64
NtRp2174
(dp2175
g67
(dp2176
sg76
g2023
sg69
(lp2177
g62
(g83
g64
NtRp2178
(dp2179
g67
(dp2180
g87
g88
ssg76
g2174
sg69
(lp2181
S'HTTP_ACCEPT_LANGUAGE'
p2182
asbag62
(g83
g64
NtRp2183
(dp2184
g67
(dp2185
g94
g95
ssg76
g2174
sg69
(lp2186
S':'
asbag62
(g83
g64
NtRp2187
(dp2188
g67
(dp2189
sg76
g2174
sg69
(lp2190
g62
(g63
g64
NtRp2191
(dp2192
g67
(dp2193
g75
I3
ssg76
g2187
sg69
(lp2194
g1090
asbasbasbag62
(g78
g64
NtRp2195
(dp2196
g67
(dp2197
sg76
g2023
sg69
(lp2198
g62
(g83
g64
NtRp2199
(dp2200
g67
(dp2201
g87
g88
ssg76
g2195
sg69
(lp2202
S'HTTP_CONNECTION'
p2203
asbag62
(g83
g64
NtRp2204
(dp2205
g67
(dp2206
g94
g95
ssg76
g2195
sg69
(lp2207
S':'
asbag62
(g83
g64
NtRp2208
(dp2209
g67
(dp2210
sg76
g2195
sg69
(lp2211
g62
(g63
g64
NtRp2212
(dp2213
g67
(dp2214
g75
I3
ssg76
g2208
sg69
(lp2215
g1112
asbasbasbag62
(g78
g64
NtRp2216
(dp2217
g67
(dp2218
sg76
g2023
sg69
(lp2219
g62
(g83
g64
NtRp2220
(dp2221
g67
(dp2222
g87
g88
ssg76
g2216
sg69
(lp2223
S'HTTP_COOKIE'
p2224
asbag62
(g83
g64
NtRp2225
(dp2226
g67
(dp2227
g94
g95
ssg76
g2216
sg69
(lp2228
S':'
asbag62
(g83
g64
NtRp2229
(dp2230
g67
(dp2231
sg76
g2216
sg69
(lp2232
g62
(g63
g64
NtRp2233
(dp2234
g67
(dp2235
g75
I3
ssg76
g2229
sg69
(lp2236
g1134
asbasbasbag62
(g78
g64
NtRp2237
(dp2238
g67
(dp2239
sg76
g2023
sg69
(lp2240
g62
(g83
g64
NtRp2241
(dp2242
g67
(dp2243
g87
g88
ssg76
g2237
sg69
(lp2244
S'HTTP_HOST'
p2245
asbag62
(g83
g64
NtRp2246
(dp2247
g67
(dp2248
g94
g95
ssg76
g2237
sg69
(lp2249
S':'
asbag62
(g83
g64
NtRp2250
(dp2251
g67
(dp2252
sg76
g2237
sg69
(lp2253
g62
(g63
g64
NtRp2254
(dp2255
g67
(dp2256
g75
I3
ssg76
g2250
sg69
(lp2257
g1156
asbasbasbag62
(g78
g64
NtRp2258
(dp2259
g67
(dp2260
sg76
g2023
sg69
(lp2261
g62
(g83
g64
NtRp2262
(dp2263
g67
(dp2264
g87
g88
ssg76
g2258
sg69
(lp2265
S'HTTP_KEEP_ALIVE'
p2266
asbag62
(g83
g64
NtRp2267
(dp2268
g67
(dp2269
g94
g95
ssg76
g2258
sg69
(lp2270
S':'
asbag62
(g83
g64
NtRp2271
(dp2272
g67
(dp2273
sg76
g2258
sg69
(lp2274
g62
(g63
g64
NtRp2275
(dp2276
g67
(dp2277
g75
I3
ssg76
g2271
sg69
(lp2278
g1178
asbasbasbag62
(g78
g64
NtRp2279
(dp2280
g67
(dp2281
sg76
g2023
sg69
(lp2282
g62
(g83
g64
NtRp2283
(dp2284
g67
(dp2285
g87
g88
ssg76
g2279
sg69
(lp2286
S'HTTP_REFERER'
p2287
asbag62
(g83
g64
NtRp2288
(dp2289
g67
(dp2290
g94
g95
ssg76
g2279
sg69
(lp2291
S':'
asbag62
(g83
g64
NtRp2292
(dp2293
g67
(dp2294
sg76
g2279
sg69
(lp2295
g62
(g63
g64
NtRp2296
(dp2297
g67
(dp2298
g75
I3
ssg76
g2292
sg69
(lp2299
g1200
asbasbasbag62
(g78
g64
NtRp2300
(dp2301
g67
(dp2302
sg76
g2023
sg69
(lp2303
g62
(g83
g64
NtRp2304
(dp2305
g67
(dp2306
g87
g88
ssg76
g2300
sg69
(lp2307
S'HTTP_USER_AGENT'
p2308
asbag62
(g83
g64
NtRp2309
(dp2310
g67
(dp2311
g94
g95
ssg76
g2300
sg69
(lp2312
S':'
asbag62
(g83
g64
NtRp2313
(dp2314
g67
(dp2315
sg76
g2300
sg69
(lp2316
g62
(g63
g64
NtRp2317
(dp2318
g67
(dp2319
g75
I3
ssg76
g2313
sg69
(lp2320
g1222
asbasbasbag62
(g78
g64
NtRp2321
(dp2322
g67
(dp2323
sg76
g2023
sg69
(lp2324
g62
(g83
g64
NtRp2325
(dp2326
g67
(dp2327
g87
g88
ssg76
g2321
sg69
(lp2328
S'PATH_INFO'
p2329
asbag62
(g83
g64
NtRp2330
(dp2331
g67
(dp2332
g94
g95
ssg76
g2321
sg69
(lp2333
S':'
asbag62
(g83
g64
NtRp2334
(dp2335
g67
(dp2336
sg76
g2321
sg69
(lp2337
g62
(g63
g64
NtRp2338
(dp2339
g67
(dp2340
g75
I3
ssg76
g2334
sg69
(lp2341
g1266
asbasbasbag62
(g78
g64
NtRp2342
(dp2343
g67
(dp2344
sg76
g2023
sg69
(lp2345
g62
(g83
g64
NtRp2346
(dp2347
g67
(dp2348
g87
g88
ssg76
g2342
sg69
(lp2349
S'QUERY_STRING'
p2350
asbag62
(g83
g64
NtRp2351
(dp2352
g67
(dp2353
g94
g95
ssg76
g2342
sg69
(lp2354
S':'
asbag62
(g83
g64
NtRp2355
(dp2356
g67
(dp2357
sg76
g2342
sg69
(lp2358
g62
(g63
g64
NtRp2359
(dp2360
g67
(dp2361
g75
I3
ssg76
g2355
sg69
(lp2362
S''
asbasbasbag62
(g78
g64
NtRp2363
(dp2364
g67
(dp2365
sg76
g2023
sg69
(lp2366
g62
(g83
g64
NtRp2367
(dp2368
g67
(dp2369
g87
g88
ssg76
g2363
sg69
(lp2370
S'REMOTE_ADDR'
p2371
asbag62
(g83
g64
NtRp2372
(dp2373
g67
(dp2374
g94
g95
ssg76
g2363
sg69
(lp2375
S':'
asbag62
(g83
g64
NtRp2376
(dp2377
g67
(dp2378
sg76
g2363
sg69
(lp2379
g62
(g63
g64
NtRp2380
(dp2381
g67
(dp2382
g75
I3
ssg76
g2376
sg69
(lp2383
g195
asbasbasbag62
(g78
g64
NtRp2384
(dp2385
g67
(dp2386
sg76
g2023
sg69
(lp2387
g62
(g83
g64
NtRp2388
(dp2389
g67
(dp2390
g87
g88
ssg76
g2384
sg69
(lp2391
S'REMOTE_PORT'
p2392
asbag62
(g83
g64
NtRp2393
(dp2394
g67
(dp2395
g94
g95
ssg76
g2384
sg69
(lp2396
S':'
asbag62
(g83
g64
NtRp2397
(dp2398
g67
(dp2399
sg76
g2384
sg69
(lp2400
g62
(g63
g64
NtRp2401
(dp2402
g67
(dp2403
g75
I3
ssg76
g2397
sg69
(lp2404
g1330
asbasbasbag62
(g78
g64
NtRp2405
(dp2406
g67
(dp2407
sg76
g2023
sg69
(lp2408
g62
(g83
g64
NtRp2409
(dp2410
g67
(dp2411
g87
g88
ssg76
g2405
sg69
(lp2412
S'REQUEST_METHOD'
p2413
asbag62
(g83
g64
NtRp2414
(dp2415
g67
(dp2416
g94
g95
ssg76
g2405
sg69
(lp2417
S':'
asbag62
(g83
g64
NtRp2418
(dp2419
g67
(dp2420
sg76
g2405
sg69
(lp2421
g62
(g63
g64
NtRp2422
(dp2423
g67
(dp2424
g75
I3
ssg76
g2418
sg69
(lp2425
g1352
asbasbasbag62
(g78
g64
NtRp2426
(dp2427
g67
(dp2428
sg76
g2023
sg69
(lp2429
g62
(g83
g64
NtRp2430
(dp2431
g67
(dp2432
g87
g88
ssg76
g2426
sg69
(lp2433
S'REQUEST_URI'
p2434
asbag62
(g83
g64
NtRp2435
(dp2436
g67
(dp2437
g94
g95
ssg76
g2426
sg69
(lp2438
S':'
asbag62
(g83
g64
NtRp2439
(dp2440
g67
(dp2441
sg76
g2426
sg69
(lp2442
g62
(g63
g64
NtRp2443
(dp2444
g67
(dp2445
g75
I3
ssg76
g2439
sg69
(lp2446
g1374
asbasbasbag62
(g78
g64
NtRp2447
(dp2448
g67
(dp2449
sg76
g2023
sg69
(lp2450
g62
(g83
g64
NtRp2451
(dp2452
g67
(dp2453
g87
g88
ssg76
g2447
sg69
(lp2454
S'SERVER_NAME'
p2455
asbag62
(g83
g64
NtRp2456
(dp2457
g67
(dp2458
g94
g95
ssg76
g2447
sg69
(lp2459
S':'
asbag62
(g83
g64
NtRp2460
(dp2461
g67
(dp2462
sg76
g2447
sg69
(lp2463
g62
(g63
g64
NtRp2464
(dp2465
g67
(dp2466
g75
I3
ssg76
g2460
sg69
(lp2467
g1396
asbasbasbag62
(g78
g64
NtRp2468
(dp2469
g67
(dp2470
sg76
g2023
sg69
(lp2471
g62
(g83
g64
NtRp2472
(dp2473
g67
(dp2474
g87
g88
ssg76
g2468
sg69
(lp2475
S'SERVER_PORT'
p2476
asbag62
(g83
g64
NtRp2477
(dp2478
g67
(dp2479
g94
g95
ssg76
g2468
sg69
(lp2480
S':'
asbag62
(g83
g64
NtRp2481
(dp2482
g67
(dp2483
sg76
g2468
sg69
(lp2484
g62
(g63
g64
NtRp2485
(dp2486
g67
(dp2487
g75
I3
ssg76
g2481
sg69
(lp2488
g1418
asbasbasbag62
(g78
g64
NtRp2489
(dp2490
g67
(dp2491
sg76
g2023
sg69
(lp2492
g62
(g83
g64
NtRp2493
(dp2494
g67
(dp2495
g87
g88
ssg76
g2489
sg69
(lp2496
S'SERVER_PROTOCOL'
p2497
asbag62
(g83
g64
NtRp2498
(dp2499
g67
(dp2500
g94
g95
ssg76
g2489
sg69
(lp2501
S':'
asbag62
(g83
g64
NtRp2502
(dp2503
g67
(dp2504
sg76
g2489
sg69
(lp2505
g62
(g63
g64
NtRp2506
(dp2507
g67
(dp2508
g75
I3
ssg76
g2502
sg69
(lp2509
g1440
asbasbasbag62
(g78
g64
NtRp2510
(dp2511
g67
(dp2512
sg76
g2023
sg69
(lp2513
g62
(g83
g64
NtRp2514
(dp2515
g67
(dp2516
g87
g88
ssg76
g2510
sg69
(lp2517
S'uwsgi.version'
p2518
asbag62
(g83
g64
NtRp2519
(dp2520
g67
(dp2521
g94
g95
ssg76
g2510
sg69
(lp2522
S':'
asbag62
(g83
g64
NtRp2523
(dp2524
g67
(dp2525
sg76
g2510
sg69
(lp2526
g62
(g63
g64
NtRp2527
(dp2528
g67
(dp2529
g75
I3
ssg76
g2523
sg69
(lp2530
g1462
asbasbasbag62
(g78
g64
NtRp2531
(dp2532
g67
(dp2533
sg76
g2023
sg69
(lp2534
g62
(g83
g64
NtRp2535
(dp2536
g67
(dp2537
g87
g88
ssg76
g2531
sg69
(lp2538
S'wsgi.errors'
p2539
asbag62
(g83
g64
NtRp2540
(dp2541
g67
(dp2542
g94
g95
ssg76
g2531
sg69
(lp2543
S':'
asbag62
(g83
g64
NtRp2544
(dp2545
g67
(dp2546
sg76
g2531
sg69
(lp2547
g62
(g63
g64
NtRp2548
(dp2549
g67
(dp2550
g75
I3
ssg76
g2544
sg69
(lp2551
S"<open file 'wsgi_input', mode 'w' at 0xa28e020>"
p2552
asbasbasbag62
(g78
g64
NtRp2553
(dp2554
g67
(dp2555
sg76
g2023
sg69
(lp2556
g62
(g83
g64
NtRp2557
(dp2558
g67
(dp2559
g87
g88
ssg76
g2553
sg69
(lp2560
S'wsgi.file_wrapper'
p2561
asbag62
(g83
g64
NtRp2562
(dp2563
g67
(dp2564
g94
g95
ssg76
g2553
sg69
(lp2565
S':'
asbag62
(g83
g64
NtRp2566
(dp2567
g67
(dp2568
sg76
g2553
sg69
(lp2569
g62
(g63
g64
NtRp2570
(dp2571
g67
(dp2572
g75
I3
ssg76
g2566
sg69
(lp2573
S'<built-in function uwsgi_sendfile>'
p2574
asbasbasbag62
(g78
g64
NtRp2575
(dp2576
g67
(dp2577
sg76
g2023
sg69
(lp2578
g62
(g83
g64
NtRp2579
(dp2580
g67
(dp2581
g87
g88
ssg76
g2575
sg69
(lp2582
S'wsgi.input'
p2583
asbag62
(g83
g64
NtRp2584
(dp2585
g67
(dp2586
g94
g95
ssg76
g2575
sg69
(lp2587
S':'
asbag62
(g83
g64
NtRp2588
(dp2589
g67
(dp2590
sg76
g2575
sg69
(lp2591
g62
(g63
g64
NtRp2592
(dp2593
g67
(dp2594
g75
I3
ssg76
g2588
sg69
(lp2595
S'<cStringIO.StringO object at 0xa28c2a0>'
p2596
asbasbasbag62
(g78
g64
NtRp2597
(dp2598
g67
(dp2599
sg76
g2023
sg69
(lp2600
g62
(g83
g64
NtRp2601
(dp2602
g67
(dp2603
g87
g88
ssg76
g2597
sg69
(lp2604
S'wsgi.multiprocess'
p2605
asbag62
(g83
g64
NtRp2606
(dp2607
g67
(dp2608
g94
g95
ssg76
g2597
sg69
(lp2609
S':'
asbag62
(g83
g64
NtRp2610
(dp2611
g67
(dp2612
sg76
g2597
sg69
(lp2613
g62
(g63
g64
NtRp2614
(dp2615
g67
(dp2616
g75
I3
ssg76
g2610
sg69
(lp2617
g105
asbasbasbag62
(g78
g64
NtRp2618
(dp2619
g67
(dp2620
sg76
g2023
sg69
(lp2621
g62
(g83
g64
NtRp2622
(dp2623
g67
(dp2624
g87
g88
ssg76
g2618
sg69
(lp2625
S'wsgi.multithread'
p2626
asbag62
(g83
g64
NtRp2627
(dp2628
g67
(dp2629
g94
g95
ssg76
g2618
sg69
(lp2630
S':'
asbag62
(g83
g64
NtRp2631
(dp2632
g67
(dp2633
sg76
g2618
sg69
(lp2634
g62
(g63
g64
NtRp2635
(dp2636
g67
(dp2637
g75
I3
ssg76
g2631
sg69
(lp2638
g105
asbasbasbag62
(g78
g64
NtRp2639
(dp2640
g67
(dp2641
sg76
g2023
sg69
(lp2642
g62
(g83
g64
NtRp2643
(dp2644
g67
(dp2645
g87
g88
ssg76
g2639
sg69
(lp2646
S'wsgi.run_once'
p2647
asbag62
(g83
g64
NtRp2648
(dp2649
g67
(dp2650
g94
g95
ssg76
g2639
sg69
(lp2651
S':'
asbag62
(g83
g64
NtRp2652
(dp2653
g67
(dp2654
sg76
g2639
sg69
(lp2655
g62
(g63
g64
NtRp2656
(dp2657
g67
(dp2658
g75
I3
ssg76
g2652
sg69
(lp2659
g105
asbasbasbag62
(g78
g64
NtRp2660
(dp2661
g67
(dp2662
sg76
g2023
sg69
(lp2663
g62
(g83
g64
NtRp2664
(dp2665
g67
(dp2666
g87
g88
ssg76
g2660
sg69
(lp2667
S'wsgi.url_scheme'
p2668
asbag62
(g83
g64
NtRp2669
(dp2670
g67
(dp2671
g94
g95
ssg76
g2660
sg69
(lp2672
S':'
asbag62
(g83
g64
NtRp2673
(dp2674
g67
(dp2675
sg76
g2660
sg69
(lp2676
g62
(g63
g64
NtRp2677
(dp2678
g67
(dp2679
g75
I3
ssg76
g2673
sg69
(lp2680
g1656
asbasbasbag62
(g78
g64
NtRp2681
(dp2682
g67
(dp2683
sg76
g2023
sg69
(lp2684
g62
(g83
g64
NtRp2685
(dp2686
g67
(dp2687
g87
g88
ssg76
g2681
sg69
(lp2688
S'wsgi.version'
p2689
asbag62
(g83
g64
NtRp2690
(dp2691
g67
(dp2692
g94
g95
ssg76
g2681
sg69
(lp2693
S':'
asbag62
(g83
g64
NtRp2694
(dp2695
g67
(dp2696
sg76
g2681
sg69
(lp2697
g62
(g63
g64
NtRp2698
(dp2699
g67
(dp2700
g75
I3
ssg76
g2694
sg69
(lp2701
S'1'
asbasbasbasbasbasbasbasbasbasbasbasbasbsS'frames'
p2702
(lp2703
(dp2704
S'file'
p2705
S'/home/arvin/web2py/gluon/restricted.py'
p2706
sS'dump'
p2707
(dp2708
S'environment'
p2709
S"{'A': <class 'gluon.html.A'>, 'Auth': <class 'gluon.tools.Auth'>, 'B': <class 'gluon.html.B'>, 'BEAUTIFY': <class 'gluon.html.BEAUTIFY'>, 'BODY': <class 'gluon.html.BODY'>, 'BR': <class 'gluon.html.BR'>, 'BUTTON': <class 'gluon.html.BUTTON'>, 'CENTER': <class 'gluon.html.CENTER'>, 'CLEANUP': <class 'gluon.validators.CLEANUP'>, 'CODE': <class 'gluon.html.CODE'>, ...}"
p2710
sS'ccode'
p2711
S'<code object <module> at 0xa4de458, file "/home/...eb2py/applications/welcome/models/db.py", line 8>'
p2712
ssS'lnum'
p2713
I192
sS'lines'
p2714
(dp2715
I192
S'        exec ccode in environment'
p2716
sI193
S'    except HTTP:'
p2717
sI194
S'        raise'
p2718
sI195
S'    except Exception:'
p2719
sI196
S'        # XXX Show exception in Wing IDE if running in debugger'
p2720
sI187
S'    try:'
p2721
sI188
S'        if type(code) == types.CodeType:'
p2722
sI189
S'            ccode = code'
p2723
sI190
S'        else:'
p2724
sI191
S'            ccode = compile2(code,layer)'
p2725
ssS'call'
p2726
S"(code='# -*- coding: utf-8 -*-\\n# this file is released ...################################################\\n', environment={'A': <class 'gluon.html.A'>, 'Auth': <class 'gluon.tools.Auth'>, 'B': <class 'gluon.html.B'>, 'BEAUTIFY': <class 'gluon.html.BEAUTIFY'>, 'BODY': <class 'gluon.html.BODY'>, 'BR': <class 'gluon.html.BR'>, 'BUTTON': <class 'gluon.html.BUTTON'>, 'CENTER': <class 'gluon.html.CENTER'>, 'CLEANUP': <class 'gluon.validators.CLEANUP'>, 'CODE': <class 'gluon.html.CODE'>, ...}, layer='/home/arvin/web2py/applications/welcome/models/db.py')"
p2727
sS'func'
p2728
S'restricted'
p2729
sa(dp2730
g2705
S'/home/arvin/web2py/applications/welcome/models/db.py'
p2731
sg2707
(dp2732
S'auth.define_tables'
p2733
S'<bound method Auth.define_tables of <gluon.tools.Auth object>>'
p2734
sS'auth'
p2735
S'<gluon.tools.Auth object>'
p2736
ssg2713
I45
sg2714
(dp2737
I40
S"mail.settings.server = 'logging' or 'smtp.gmail.com:587'  # your SMTP server"
p2738
sI41
S"mail.settings.sender = 'you@gmail.com'         # your email"
p2739
sI42
S"mail.settings.login = 'username:password'      # your credentials or None"
p2740
sI43
S''
sI44
S"auth.settings.hmac_key = '<your secret key>'   # before define_tables()"
p2741
sI45
S'auth.define_tables()                           # creates all needed tables'
p2742
sI46
S'auth.settings.mailer = mail                    # for user email verification'
p2743
sI47
S'auth.settings.registration_requires_verification = False'
p2744
sI48
S'auth.settings.registration_requires_approval = False'
p2745
sI49
S"auth.messages.verify_email = 'Click on the link http://'+request.env.http_host+URL('default','user',args=['verify_email'])+'/%(key)s to verify your email'"
p2746
ssg2726
S'()'
p2747
sg2728
S'<module>'
p2748
sa(dp2749
g2705
S'/home/arvin/web2py/gluon/tools.py'
p2750
sg2707
(dp2751
S'builtinformat'
p2752
S'<built-in function format>'
p2753
ssg2713
I1203
sg2714
(dp2754
I1198
S'                    *settings.extra_fields.get(settings.table_user_name,[]),'
p2755
sI1199
S'                    **dict('
p2756
sI1200
S'                        migrate=self.__get_migrate(settings.table_user_name,'
p2757
sI1201
S'                                                   migrate),'
p2758
sI1202
S'                        fake_migrate=fake_migrate,'
p2759
sI1203
S"                        format='%(first_name)s %(last_name)s (%(id)s)'))"
p2760
sI1204
S'            table.first_name.requires = \\'
p2761
sI1205
S'                IS_NOT_EMPTY(error_message=self.messages.is_empty)'
p2762
sI1206
S'            table.last_name.requires = \\'
p2763
sI1207
S'                IS_NOT_EMPTY(error_message=self.messages.is_empty)'
p2764
ssg2726
S'(self=<gluon.tools.Auth object>, username=False, migrate=True, fake_migrate=False)'
p2765
sg2728
S'define_tables'
p2766
sa(dp2767
g2705
S'/home/arvin/web2py/gluon/dal.py'
p2768
sg2707
(dp2769
S'polymodel'
p2770
S'None'
p2771
ssg2713
I4235
sg2714
(dp2772
I4230
S"        if migrate or self._adapter.dbengine=='google:datastore':"
p2773
sI4231
S'            try:'
p2774
sI4232
S'                sql_locker.acquire()'
p2775
sI4233
S'                self._adapter.create_table(t,migrate=migrate,'
p2776
sI4234
S'                                           fake_migrate=fake_migrate,'
p2777
sI4235
S'                                           polymodel=polymodel)'
p2778
sI4236
S'            finally:'
p2779
sI4237
S'                sql_locker.release()'
p2780
sI4238
S'        else:'
p2781
sI4239
S'            t._dbt = None'
p2782
ssg2726
S'(self=<DAL {\'_migrate_enabled\': True, \'_lastsql\': "SET...\'_uri_hash\': \'a348fcb27a2f1ccf1d9342d3c019f68c\'}>, tablename=\'auth_user\', *fields=(<gluon.dal.Field object>, <gluon.dal.Field object>, <gluon.dal.Field object>, <gluon.dal.Field object>, <gluon.dal.Field object>, <gluon.dal.Field object>), **args={\'fake_migrate\': False, \'format\': \'%(first_name)s %(last_name)s (%(id)s)\', \'migrate\': True})'
p2783
sg2728
S'define_table'
p2784
sa(dp2785
g2705
S'/home/arvin/web2py/gluon/dal.py'
p2786
sg2707
(dp2787
S'table'
p2788
S"<Table {'first_name': <gluon.dal.Field object at...c>, 'id': <gluon.dal.Field object at 0xa3c6acc>}>"
p2789
sS'self'
p2790
S'<gluon.dal.MySQLAdapter object>'
p2791
sS'logfile'
p2792
S'undefined'
p2793
sS'table._loggername'
p2794
S"'/home/arvin/web2py/applications/welcome/databases/sql.log'"
p2795
sS'self.file_open'
p2796
S'<bound method MySQLAdapter.file_open of <gluon.dal.MySQLAdapter object>>'
p2797
ssg2713
I627
sg2714
(dp2798
I622
S'        else:'
p2799
sI623
S"            table._dbt = os.path.join(dbpath, '%s_%s.table' \\"
p2800
sI624
S'                                          % (table._db._uri_hash, tablename))'
p2801
sI625
S'        if table._dbt:'
p2802
sI626
S"            table._loggername = os.path.join(dbpath, 'sql.log')"
p2803
sI627
S"            logfile = self.file_open(table._loggername, 'a')"
p2804
sI628
S'        else:'
p2805
sI629
S'            logfile = None'
p2806
sI630
S'        if not table._dbt or not self.file_exists(table._dbt):'
p2807
sI631
S'            if table._dbt:'
p2808
ssg2726
S"(self=<gluon.dal.MySQLAdapter object>, table=<Table {'first_name': <gluon.dal.Field object at...c>, 'id': <gluon.dal.Field object at 0xa3c6acc>}>, migrate=True, fake_migrate=False, polymodel=None)"
p2809
sg2728
S'create_table'
p2810
sa(dp2811
g2705
S'/home/arvin/web2py/gluon/dal.py'
p2812
sg2707
(dp2813
S'builtinopen'
p2814
S'<built-in function open>'
p2815
sS'mode'
p2816
S"'a'"
p2817
sS'fileobj'
p2818
g2793
sS'filename'
p2819
S"'/home/arvin/web2py/applications/welcome/databases/sql.log'"
p2820
ssg2713
I455
sg2714
(dp2821
I450
S''
sI451
S"    def file_open(self, filename, mode='rb', lock=True):"
p2822
sI452
S'        """'
p2823
sI453
S'        to be used ONLY for files that on GAE may not be on filesystem'
p2824
sI454
S'        """'
p2825
sI455
S'        fileobj = open(filename,mode)'
p2826
sI456
S'        if have_portalocker and lock:'
p2827
sI457
S"            if mode in ('r','rb'):"
p2828
sI458
S'                portalocker.lock(fileobj,portalocker.LOCK_SH)'
p2829
sI459
S"            elif mode in ('w','wb','a'):"
p2830
ssg2726
S"(self=<gluon.dal.MySQLAdapter object>, filename='/home/arvin/web2py/applications/welcome/databases/sql.log', mode='a', lock=True)"
p2831
sg2728
S'file_open'
p2832
sasS'pyver'
p2833
S'Python 2.7.1+: '
p2834
sS'session'
p2835
g62
(g63
g64
NtRp2836
(dp2837
g67
(dp2838
sg69
(lp2839
g62
(g71
g64
NtRp2840
(dp2841
g67
(dp2842
g75
I5
ssg76
Nsg69
(lp2843
sbasbsS'etype'
p2844
S"<type 'exceptions.IOError'>"
p2845
sS'date'
p2846
S'Tue Jun 21 14:26:03 2011'
p2847
sS'response'
p2848
g62
(g63
g64
NtRp2849
(dp2850
g67
(dp2851
sg69
(lp2852
g62
(g71
g64
NtRp2853
(dp2854
g67
(dp2855
g75
I5
ssg76
Nsg69
(lp2856
g62
(g78
g64
NtRp2857
(dp2858
g67
(dp2859
sg76
g2853
sg69
(lp2860
g62
(g83
g64
NtRp2861
(dp2862
g67
(dp2863
g87
g88
ssg76
g2857
sg69
(lp2864
g160
asbag62
(g83
g64
NtRp2865
(dp2866
g67
(dp2867
g94
g95
ssg76
g2857
sg69
(lp2868
S':'
asbag62
(g83
g64
NtRp2869
(dp2870
g67
(dp2871
sg76
g2857
sg69
(lp2872
g62
(g63
g64
NtRp2873
(dp2874
g67
(dp2875
g75
I5
ssg76
g2869
sg69
(lp2876
S'<cStringIO.StringO object at 0xa28c120>'
p2877
asbasbasbag62
(g78
g64
NtRp2878
(dp2879
g67
(dp2880
sg76
g2853
sg69
(lp2881
g62
(g83
g64
NtRp2882
(dp2883
g67
(dp2884
g87
g88
ssg76
g2878
sg69
(lp2885
g226
asbag62
(g83
g64
NtRp2886
(dp2887
g67
(dp2888
g94
g95
ssg76
g2878
sg69
(lp2889
S':'
asbag62
(g83
g64
NtRp2890
(dp2891
g67
(dp2892
sg76
g2878
sg69
(lp2893
g62
(g63
g64
NtRp2894
(dp2895
g67
(dp2896
g75
I5
ssg76
g2890
sg69
(lp2897
g62
(g71
g64
NtRp2898
(dp2899
g67
(dp2900
g75
I4
ssg76
Nsg69
(lp2901
g62
(g78
g64
NtRp2902
(dp2903
g67
(dp2904
sg76
g2898
sg69
(lp2905
g62
(g83
g64
NtRp2906
(dp2907
g67
(dp2908
g87
g88
ssg76
g2902
sg69
(lp2909
S'session_id_welcome'
p2910
asbag62
(g83
g64
NtRp2911
(dp2912
g67
(dp2913
g94
g95
ssg76
g2902
sg69
(lp2914
S':'
asbag62
(g83
g64
NtRp2915
(dp2916
g67
(dp2917
sg76
g2902
sg69
(lp2918
g62
(g63
g64
NtRp2919
(dp2920
g67
(dp2921
g75
I4
ssg76
g2915
sg69
(lp2922
g62
(g71
g64
NtRp2923
(dp2924
g67
(dp2925
g75
I3
ssg76
Nsg69
(lp2926
g62
(g78
g64
NtRp2927
(dp2928
g67
(dp2929
sg76
g2923
sg69
(lp2930
g62
(g83
g64
NtRp2931
(dp2932
g67
(dp2933
g87
g88
ssg76
g2927
sg69
(lp2934
g276
asbag62
(g83
g64
NtRp2935
(dp2936
g67
(dp2937
g94
g95
ssg76
g2927
sg69
(lp2938
S':'
asbag62
(g83
g64
NtRp2939
(dp2940
g67
(dp2941
sg76
g2927
sg69
(lp2942
g62
(g63
g64
NtRp2943
(dp2944
g67
(dp2945
g75
I3
ssg76
g2939
sg69
(lp2946
S''
asbasbasbag62
(g78
g64
NtRp2947
(dp2948
g67
(dp2949
sg76
g2923
sg69
(lp2950
g62
(g83
g64
NtRp2951
(dp2952
g67
(dp2953
g87
g88
ssg76
g2947
sg69
(lp2954
g297
asbag62
(g83
g64
NtRp2955
(dp2956
g67
(dp2957
g94
g95
ssg76
g2947
sg69
(lp2958
S':'
asbag62
(g83
g64
NtRp2959
(dp2960
g67
(dp2961
sg76
g2947
sg69
(lp2962
g62
(g63
g64
NtRp2963
(dp2964
g67
(dp2965
g75
I3
ssg76
g2959
sg69
(lp2966
S''
asbasbasbag62
(g78
g64
NtRp2967
(dp2968
g67
(dp2969
sg76
g2923
sg69
(lp2970
g62
(g83
g64
NtRp2971
(dp2972
g67
(dp2973
g87
g88
ssg76
g2967
sg69
(lp2974
g318
asbag62
(g83
g64
NtRp2975
(dp2976
g67
(dp2977
g94
g95
ssg76
g2967
sg69
(lp2978
S':'
asbag62
(g83
g64
NtRp2979
(dp2980
g67
(dp2981
sg76
g2967
sg69
(lp2982
g62
(g63
g64
NtRp2983
(dp2984
g67
(dp2985
g75
I3
ssg76
g2979
sg69
(lp2986
S''
asbasbasbag62
(g78
g64
NtRp2987
(dp2988
g67
(dp2989
sg76
g2923
sg69
(lp2990
g62
(g83
g64
NtRp2991
(dp2992
g67
(dp2993
g87
g88
ssg76
g2987
sg69
(lp2994
g339
asbag62
(g83
g64
NtRp2995
(dp2996
g67
(dp2997
g94
g95
ssg76
g2987
sg69
(lp2998
S':'
asbag62
(g83
g64
NtRp2999
(dp3000
g67
(dp3001
sg76
g2987
sg69
(lp3002
g62
(g63
g64
NtRp3003
(dp3004
g67
(dp3005
g75
I3
ssg76
g2999
sg69
(lp3006
S''
asbasbasbag62
(g78
g64
NtRp3007
(dp3008
g67
(dp3009
sg76
g2923
sg69
(lp3010
g62
(g83
g64
NtRp3011
(dp3012
g67
(dp3013
g87
g88
ssg76
g3007
sg69
(lp3014
g360
asbag62
(g83
g64
NtRp3015
(dp3016
g67
(dp3017
g94
g95
ssg76
g3007
sg69
(lp3018
S':'
asbag62
(g83
g64
NtRp3019
(dp3020
g67
(dp3021
sg76
g3007
sg69
(lp3022
g62
(g63
g64
NtRp3023
(dp3024
g67
(dp3025
g75
I3
ssg76
g3019
sg69
(lp3026
S''
asbasbasbag62
(g78
g64
NtRp3027
(dp3028
g67
(dp3029
sg76
g2923
sg69
(lp3030
g62
(g83
g64
NtRp3031
(dp3032
g67
(dp3033
g87
g88
ssg76
g3027
sg69
(lp3034
g381
asbag62
(g83
g64
NtRp3035
(dp3036
g67
(dp3037
g94
g95
ssg76
g3027
sg69
(lp3038
S':'
asbag62
(g83
g64
NtRp3039
(dp3040
g67
(dp3041
sg76
g3027
sg69
(lp3042
g62
(g63
g64
NtRp3043
(dp3044
g67
(dp3045
g75
I3
ssg76
g3039
sg69
(lp3046
S'/'
asbasbasbag62
(g78
g64
NtRp3047
(dp3048
g67
(dp3049
sg76
g2923
sg69
(lp3050
g62
(g83
g64
NtRp3051
(dp3052
g67
(dp3053
g87
g88
ssg76
g3047
sg69
(lp3054
g402
asbag62
(g83
g64
NtRp3055
(dp3056
g67
(dp3057
g94
g95
ssg76
g3047
sg69
(lp3058
S':'
asbag62
(g83
g64
NtRp3059
(dp3060
g67
(dp3061
sg76
g3047
sg69
(lp3062
g62
(g63
g64
NtRp3063
(dp3064
g67
(dp3065
g75
I3
ssg76
g3059
sg69
(lp3066
S''
asbasbasbag62
(g78
g64
NtRp3067
(dp3068
g67
(dp3069
sg76
g2923
sg69
(lp3070
g62
(g83
g64
NtRp3071
(dp3072
g67
(dp3073
g87
g88
ssg76
g3067
sg69
(lp3074
g423
asbag62
(g83
g64
NtRp3075
(dp3076
g67
(dp3077
g94
g95
ssg76
g3067
sg69
(lp3078
S':'
asbag62
(g83
g64
NtRp3079
(dp3080
g67
(dp3081
sg76
g3067
sg69
(lp3082
g62
(g63
g64
NtRp3083
(dp3084
g67
(dp3085
g75
I3
ssg76
g3079
sg69
(lp3086
S''
asbasbasbasbasbasbasbasbasbasbasbag62
(g78
g64
NtRp3087
(dp3088
g67
(dp3089
sg76
g2853
sg69
(lp3090
g62
(g83
g64
NtRp3091
(dp3092
g67
(dp3093
g87
g88
ssg76
g3087
sg69
(lp3094
S'files'
p3095
asbag62
(g83
g64
NtRp3096
(dp3097
g67
(dp3098
g94
g95
ssg76
g3087
sg69
(lp3099
S':'
asbag62
(g83
g64
NtRp3100
(dp3101
g67
(dp3102
sg76
g3087
sg69
(lp3103
g62
(g63
g64
NtRp3104
(dp3105
g67
(dp3106
g75
I5
ssg76
g3100
sg69
(lp3107
g62
(g71
g64
NtRp3108
(dp3109
g67
(dp3110
g75
I4
ssg76
Nsg69
(lp3111
sbasbasbasbag62
(g78
g64
NtRp3112
(dp3113
g67
(dp3114
sg76
g2853
sg69
(lp3115
g62
(g83
g64
NtRp3116
(dp3117
g67
(dp3118
g87
g88
ssg76
g3112
sg69
(lp3119
S'flash'
p3120
asbag62
(g83
g64
NtRp3121
(dp3122
g67
(dp3123
g94
g95
ssg76
g3112
sg69
(lp3124
S':'
asbag62
(g83
g64
NtRp3125
(dp3126
g67
(dp3127
sg76
g3112
sg69
(lp3128
g62
(g63
g64
NtRp3129
(dp3130
g67
(dp3131
g75
I5
ssg76
g3125
sg69
(lp3132
S''
asbasbasbag62
(g78
g64
NtRp3133
(dp3134
g67
(dp3135
sg76
g2853
sg69
(lp3136
g62
(g83
g64
NtRp3137
(dp3138
g67
(dp3139
g87
g88
ssg76
g3133
sg69
(lp3140
S'generic_patterns'
p3141
asbag62
(g83
g64
NtRp3142
(dp3143
g67
(dp3144
g94
g95
ssg76
g3133
sg69
(lp3145
S':'
asbag62
(g83
g64
NtRp3146
(dp3147
g67
(dp3148
sg76
g3133
sg69
(lp3149
g62
(g63
g64
NtRp3150
(dp3151
g67
(dp3152
g75
I5
ssg76
g3146
sg69
(lp3153
g62
(g71
g64
NtRp3154
(dp3155
g67
(dp3156
g75
I4
ssg76
Nsg69
(lp3157
sbasbasbasbag62
(g78
g64
NtRp3158
(dp3159
g67
(dp3160
sg76
g2853
sg69
(lp3161
g62
(g83
g64
NtRp3162
(dp3163
g67
(dp3164
g87
g88
ssg76
g3158
sg69
(lp3165
S'headers'
p3166
asbag62
(g83
g64
NtRp3167
(dp3168
g67
(dp3169
g94
g95
ssg76
g3158
sg69
(lp3170
S':'
asbag62
(g83
g64
NtRp3171
(dp3172
g67
(dp3173
sg76
g3158
sg69
(lp3174
g62
(g63
g64
NtRp3175
(dp3176
g67
(dp3177
g75
I5
ssg76
g3171
sg69
(lp3178
g62
(g71
g64
NtRp3179
(dp3180
g67
(dp3181
g75
I4
ssg76
Nsg69
(lp3182
g62
(g78
g64
NtRp3183
(dp3184
g67
(dp3185
sg76
g3179
sg69
(lp3186
g62
(g83
g64
NtRp3187
(dp3188
g67
(dp3189
g87
g88
ssg76
g3183
sg69
(lp3190
S'Cache-Control'
p3191
asbag62
(g83
g64
NtRp3192
(dp3193
g67
(dp3194
g94
g95
ssg76
g3183
sg69
(lp3195
S':'
asbag62
(g83
g64
NtRp3196
(dp3197
g67
(dp3198
sg76
g3183
sg69
(lp3199
g62
(g63
g64
NtRp3200
(dp3201
g67
(dp3202
g75
I4
ssg76
g3196
sg69
(lp3203
S'no-store, no-cache, must-revalidate, post-check=0, pre-check=0'
p3204
asbasbasbag62
(g78
g64
NtRp3205
(dp3206
g67
(dp3207
sg76
g3179
sg69
(lp3208
g62
(g83
g64
NtRp3209
(dp3210
g67
(dp3211
g87
g88
ssg76
g3205
sg69
(lp3212
S'Content-Type'
p3213
asbag62
(g83
g64
NtRp3214
(dp3215
g67
(dp3216
g94
g95
ssg76
g3205
sg69
(lp3217
S':'
asbag62
(g83
g64
NtRp3218
(dp3219
g67
(dp3220
sg76
g3205
sg69
(lp3221
g62
(g63
g64
NtRp3222
(dp3223
g67
(dp3224
g75
I4
ssg76
g3218
sg69
(lp3225
S'text/html; charset=utf-8'
p3226
asbasbasbag62
(g78
g64
NtRp3227
(dp3228
g67
(dp3229
sg76
g3179
sg69
(lp3230
g62
(g83
g64
NtRp3231
(dp3232
g67
(dp3233
g87
g88
ssg76
g3227
sg69
(lp3234
S'Expires'
p3235
asbag62
(g83
g64
NtRp3236
(dp3237
g67
(dp3238
g94
g95
ssg76
g3227
sg69
(lp3239
S':'
asbag62
(g83
g64
NtRp3240
(dp3241
g67
(dp3242
sg76
g3227
sg69
(lp3243
g62
(g63
g64
NtRp3244
(dp3245
g67
(dp3246
g75
I4
ssg76
g3240
sg69
(lp3247
S'Tue, 21 Jun 2011 20:26:03 GMT'
p3248
asbasbasbag62
(g78
g64
NtRp3249
(dp3250
g67
(dp3251
sg76
g3179
sg69
(lp3252
g62
(g83
g64
NtRp3253
(dp3254
g67
(dp3255
g87
g88
ssg76
g3249
sg69
(lp3256
S'Pragma'
p3257
asbag62
(g83
g64
NtRp3258
(dp3259
g67
(dp3260
g94
g95
ssg76
g3249
sg69
(lp3261
S':'
asbag62
(g83
g64
NtRp3262
(dp3263
g67
(dp3264
sg76
g3249
sg69
(lp3265
g62
(g63
g64
NtRp3266
(dp3267
g67
(dp3268
g75
I4
ssg76
g3262
sg69
(lp3269
S'no-cache'
p3270
asbasbasbag62
(g78
g64
NtRp3271
(dp3272
g67
(dp3273
sg76
g3179
sg69
(lp3274
g62
(g83
g64
NtRp3275
(dp3276
g67
(dp3277
g87
g88
ssg76
g3271
sg69
(lp3278
S'X-Powered-By'
p3279
asbag62
(g83
g64
NtRp3280
(dp3281
g67
(dp3282
g94
g95
ssg76
g3271
sg69
(lp3283
S':'
asbag62
(g83
g64
NtRp3284
(dp3285
g67
(dp3286
sg76
g3271
sg69
(lp3287
g62
(g63
g64
NtRp3288
(dp3289
g67
(dp3290
g75
I4
ssg76
g3284
sg69
(lp3291
S'web2py'
p3292
asbasbasbasbasbasbasbag62
(g78
g64
NtRp3293
(dp3294
g67
(dp3295
sg76
g2853
sg69
(lp3296
g62
(g83
g64
NtRp3297
(dp3298
g67
(dp3299
g87
g88
ssg76
g3293
sg69
(lp3300
S'menu'
p3301
asbag62
(g83
g64
NtRp3302
(dp3303
g67
(dp3304
g94
g95
ssg76
g3293
sg69
(lp3305
S':'
asbag62
(g83
g64
NtRp3306
(dp3307
g67
(dp3308
sg76
g3293
sg69
(lp3309
g62
(g63
g64
NtRp3310
(dp3311
g67
(dp3312
g75
I5
ssg76
g3306
sg69
(lp3313
g62
(g71
g64
NtRp3314
(dp3315
g67
(dp3316
g75
I4
ssg76
Nsg69
(lp3317
sbasbasbasbag62
(g78
g64
NtRp3318
(dp3319
g67
(dp3320
sg76
g2853
sg69
(lp3321
g62
(g83
g64
NtRp3322
(dp3323
g67
(dp3324
g87
g88
ssg76
g3318
sg69
(lp3325
S'meta'
p3326
asbag62
(g83
g64
NtRp3327
(dp3328
g67
(dp3329
g94
g95
ssg76
g3318
sg69
(lp3330
S':'
asbag62
(g83
g64
NtRp3331
(dp3332
g67
(dp3333
sg76
g3318
sg69
(lp3334
g62
(g63
g64
NtRp3335
(dp3336
g67
(dp3337
g75
I5
ssg76
g3331
sg69
(lp3338
g62
(g71
g64
NtRp3339
(dp3340
g67
(dp3341
g75
I4
ssg76
Nsg69
(lp3342
sbasbasbasbag62
(g78
g64
NtRp3343
(dp3344
g67
(dp3345
sg76
g2853
sg69
(lp3346
g62
(g83
g64
NtRp3347
(dp3348
g67
(dp3349
g87
g88
ssg76
g3343
sg69
(lp3350
S'postprocessing'
p3351
asbag62
(g83
g64
NtRp3352
(dp3353
g67
(dp3354
g94
g95
ssg76
g3343
sg69
(lp3355
S':'
asbag62
(g83
g64
NtRp3356
(dp3357
g67
(dp3358
sg76
g3343
sg69
(lp3359
g62
(g63
g64
NtRp3360
(dp3361
g67
(dp3362
g75
I5
ssg76
g3356
sg69
(lp3363
g62
(g71
g64
NtRp3364
(dp3365
g67
(dp3366
g75
I4
ssg76
Nsg69
(lp3367
sbasbasbasbag62
(g78
g64
NtRp3368
(dp3369
g67
(dp3370
sg76
g2853
sg69
(lp3371
g62
(g83
g64
NtRp3372
(dp3373
g67
(dp3374
g87
g88
ssg76
g3368
sg69
(lp3375
S'session_filename'
p3376
asbag62
(g83
g64
NtRp3377
(dp3378
g67
(dp3379
g94
g95
ssg76
g3368
sg69
(lp3380
S':'
asbag62
(g83
g64
NtRp3381
(dp3382
g67
(dp3383
sg76
g3368
sg69
(lp3384
g62
(g63
g64
NtRp3385
(dp3386
g67
(dp3387
g75
I5
ssg76
g3381
sg69
(lp3388
S'/home/arvin/web2py/applications/welcome/sessions/186.32.48.60-2732bf43-2348-4faa-b578-d5fb97d7396e'
p3389
asbasbasbag62
(g78
g64
NtRp3390
(dp3391
g67
(dp3392
sg76
g2853
sg69
(lp3393
g62
(g83
g64
NtRp3394
(dp3395
g67
(dp3396
g87
g88
ssg76
g3390
sg69
(lp3397
S'session_id'
p3398
asbag62
(g83
g64
NtRp3399
(dp3400
g67
(dp3401
g94
g95
ssg76
g3390
sg69
(lp3402
S':'
asbag62
(g83
g64
NtRp3403
(dp3404
g67
(dp3405
sg76
g3390
sg69
(lp3406
g62
(g63
g64
NtRp3407
(dp3408
g67
(dp3409
g75
I5
ssg76
g3403
sg69
(lp3410
S'186.32.48.60-2732bf43-2348-4faa-b578-d5fb97d7396e'
p3411
asbasbasbag62
(g78
g64
NtRp3412
(dp3413
g67
(dp3414
sg76
g2853
sg69
(lp3415
g62
(g83
g64
NtRp3416
(dp3417
g67
(dp3418
g87
g88
ssg76
g3412
sg69
(lp3419
S'session_id_name'
p3420
asbag62
(g83
g64
NtRp3421
(dp3422
g67
(dp3423
g94
g95
ssg76
g3412
sg69
(lp3424
S':'
asbag62
(g83
g64
NtRp3425
(dp3426
g67
(dp3427
sg76
g3412
sg69
(lp3428
g62
(g63
g64
NtRp3429
(dp3430
g67
(dp3431
g75
I5
ssg76
g3425
sg69
(lp3432
g2910
asbasbasbag62
(g78
g64
NtRp3433
(dp3434
g67
(dp3435
sg76
g2853
sg69
(lp3436
g62
(g83
g64
NtRp3437
(dp3438
g67
(dp3439
g87
g88
ssg76
g3433
sg69
(lp3440
S'session_new'
p3441
asbag62
(g83
g64
NtRp3442
(dp3443
g67
(dp3444
g94
g95
ssg76
g3433
sg69
(lp3445
S':'
asbag62
(g83
g64
NtRp3446
(dp3447
g67
(dp3448
sg76
g3433
sg69
(lp3449
g62
(g63
g64
NtRp3450
(dp3451
g67
(dp3452
g75
I5
ssg76
g3446
sg69
(lp3453
g1818
asbasbasbag62
(g78
g64
NtRp3454
(dp3455
g67
(dp3456
sg76
g2853
sg69
(lp3457
g62
(g83
g64
NtRp3458
(dp3459
g67
(dp3460
g87
g88
ssg76
g3454
sg69
(lp3461
S'status'
p3462
asbag62
(g83
g64
NtRp3463
(dp3464
g67
(dp3465
g94
g95
ssg76
g3454
sg69
(lp3466
S':'
asbag62
(g83
g64
NtRp3467
(dp3468
g67
(dp3469
sg76
g3454
sg69
(lp3470
g62
(g63
g64
NtRp3471
(dp3472
g67
(dp3473
g75
I5
ssg76
g3467
sg69
(lp3474
S'200'
p3475
asbasbasbag62
(g78
g64
NtRp3476
(dp3477
g67
(dp3478
sg76
g2853
sg69
(lp3479
g62
(g83
g64
NtRp3480
(dp3481
g67
(dp3482
g87
g88
ssg76
g3476
sg69
(lp3483
g1938
asbag62
(g83
g64
NtRp3484
(dp3485
g67
(dp3486
g94
g95
ssg76
g3476
sg69
(lp3487
S':'
asbag62
(g83
g64
NtRp3488
(dp3489
g67
(dp3490
sg76
g3476
sg69
(lp3491
g62
(g63
g64
NtRp3492
(dp3493
g67
(dp3494
g75
I5
ssg76
g3488
sg69
(lp3495
g1951
asbasbasbag62
(g78
g64
NtRp3496
(dp3497
g67
(dp3498
sg76
g2853
sg69
(lp3499
g62
(g83
g64
NtRp3500
(dp3501
g67
(dp3502
g87
g88
ssg76
g3496
sg69
(lp3503
S'view'
p3504
asbag62
(g83
g64
NtRp3505
(dp3506
g67
(dp3507
g94
g95
ssg76
g3496
sg69
(lp3508
S':'
asbag62
(g83
g64
NtRp3509
(dp3510
g67
(dp3511
sg76
g3496
sg69
(lp3512
g62
(g63
g64
NtRp3513
(dp3514
g67
(dp3515
g75
I5
ssg76
g3509
sg69
(lp3516
S'default/index.html'
p3517
asbasbasbasbasbsS'locals'
p3518
(dp3519
S'lock'
p3520
g1818
sS'self'
p3521
S'<gluon.dal.MySQLAdapter object>'
p3522
sS'mode'
p3523
S"'a'"
p3524
sg35
S"'/home/arvin/web2py/applications/welcome/databases/sql.log'"
p3525
sssS'traceback'
p3526
S'Traceback (most recent call last):\n  File "/home/arvin/web2py/gluon/restricted.py", line 192, in restricted\n    exec ccode in environment\n  File "/home/arvin/web2py/applications/welcome/models/db.py", line 45, in <module>\n    auth.define_tables()                           # creates all needed tables\n  File "/home/arvin/web2py/gluon/tools.py", line 1203, in define_tables\n    format=\'%(first_name)s %(last_name)s (%(id)s)\'))\n  File "/home/arvin/web2py/gluon/dal.py", line 4235, in define_table\n    polymodel=polymodel)\n  File "/home/arvin/web2py/gluon/dal.py", line 627, in create_table\n    logfile = self.file_open(table._loggername, \'a\')\n  File "/home/arvin/web2py/gluon/dal.py", line 455, in file_open\n    fileobj = open(filename,mode)\nIOError: [Errno 13] Permission denied: \'/home/arvin/web2py/applications/welcome/databases/sql.log\'\n'
p3527
s.