(dp1
S'output'
p2
S''
sS'layer'
p3
S'/home/arvin/web2py/applications/welcome/models/db.py'
p4
sS'code'
p5
S'# -*- coding: utf-8 -*-\n# this file is released under public domain and you can use without limitations\n\n#########################################################################\n## This scaffolding model makes your app work on Google App Engine too\n#########################################################################\n\nif request.env.web2py_runtime_gae:            # if running on Google App Engine\n    db = DAL(\'google:datastore\')              # connect to Google BigTable\n                                              # optional DAL(\'gae://namespace\')\n    session.connect(request, response, db = db) # and store sessions and tickets there\n    ### or use the following lines to store sessions in Memcache\n    # from gluon.contrib.memdb import MEMDB\n    # from google.appengine.api.memcache import Client\n    # session.connect(request, response, db = MEMDB(Client()))\nelse:                                         # else use a normal relational database\n    db = DAL(\'mysql://root:zaq12wsx@localhost/arvin_web2py\')       # if not, use SQLite or other DB\n              #\'sqlite://storage.sqlite\'\n# by default give a view/generic.extension to all actions from localhost\n# none otherwise. a pattern can be \'controller/function.extension\'\nresponse.generic_patterns = [\'*\'] if request.is_local else []\n\n#########################################################################\n## Here is sample code if you need for\n## - email capabilities\n## - authentication (registration, login, logout, ... )\n## - authorization (role based authorization)\n## - services (xml, csv, json, xmlrpc, jsonrpc, amf, rss)\n## - crud actions\n## (more options discussed in gluon/tools.py)\n#########################################################################\n\nfrom gluon.tools import Mail, Auth, Crud, Service, PluginManager, prettydate\nmail = Mail()                                  # mailer\nauth = Auth(db)                                # authentication/authorization\ncrud = Crud(db)                                # for CRUD helpers using auth\nservice = Service()                            # for json, xml, jsonrpc, xmlrpc, amfrpc\nplugins = PluginManager()                      # for configuring plugins\n\nmail.settings.server = \'logging\' or \'smtp.gmail.com:587\'  # your SMTP server\nmail.settings.sender = \'you@gmail.com\'         # your email\nmail.settings.login = \'username:password\'      # your credentials or None\n\nauth.settings.hmac_key = \'<your secret key>\'   # before define_tables()\nauth.define_tables()                           # creates all needed tables\nauth.settings.mailer = mail                    # for user email verification\nauth.settings.registration_requires_verification = False\nauth.settings.registration_requires_approval = False\nauth.messages.verify_email = \'Click on the link http://\'+request.env.http_host+URL(\'default\',\'user\',args=[\'verify_email\'])+\'/%(key)s to verify your email\'\nauth.settings.reset_password_requires_verification = True\nauth.messages.reset_password = \'Click on the link http://\'+request.env.http_host+URL(\'default\',\'user\',args=[\'reset_password\'])+\'/%(key)s to reset your password\'\n\n#########################################################################\n## If you need to use OpenID, Facebook, MySpace, Twitter, Linkedin, etc.\n## register with janrain.com, uncomment and customize following\n# from gluon.contrib.login_methods.rpx_account import RPXAccount\n# auth.settings.actions_disabled = \\\n#    [\'register\',\'change_password\',\'request_reset_password\']\n# auth.settings.login_form = RPXAccount(request, api_key=\'...\',domain=\'...\',\n#    url = "http://localhost:8000/%s/default/user/login" % request.application)\n## other login methods are in gluon/contrib/login_methods\n#########################################################################\n\ncrud.settings.auth = None        # =auth to enforce authorization on crud\n\n#########################################################################\n## Define your tables below (or better in another model file) for example\n##\n## >>> db.define_table(\'mytable\',Field(\'myfield\',\'string\'))\n##\n## Fields can be \'string\',\'text\',\'password\',\'integer\',\'double\',\'boolean\'\n##       \'date\',\'time\',\'datetime\',\'blob\',\'upload\', \'reference TABLENAME\'\n## There is an implicit \'id integer autoincrement\' field\n## Consult manual for more options, validators, etc.\n##\n## More API examples for controllers:\n##\n## >>> db.mytable.insert(myfield=\'value\')\n## >>> rows=db(db.mytable.myfield==\'value\').select(db.mytable.ALL)\n## >>> for row in rows: print row.id, row.myfield\n#########################################################################\n'
p6
sS'snapshot'
p7
(dp8
S'exception'
p9
(dp10
S'__hash__'
p11
S"<method-wrapper '__hash__' of exceptions.RuntimeError object>"
p12
sS'__setattr__'
p13
S"<method-wrapper '__setattr__' of exceptions.RuntimeError object>"
p14
sS'__reduce_ex__'
p15
S'<built-in method __reduce_ex__ of exceptions.RuntimeError object>'
p16
sS'__getslice__'
p17
S"<method-wrapper '__getslice__' of exceptions.RuntimeError object>"
p18
sS'__getitem__'
p19
S"<method-wrapper '__getitem__' of exceptions.RuntimeError object>"
p20
sS'__setstate__'
p21
S'<built-in method __setstate__ of exceptions.RuntimeError object>'
p22
sS'__reduce__'
p23
S'<built-in method __reduce__ of exceptions.RuntimeError object>'
p24
sS'__str__'
p25
S"<method-wrapper '__str__' of exceptions.RuntimeError object>"
p26
sS'__format__'
p27
S'<built-in method __format__ of exceptions.RuntimeError object>'
p28
sS'__getattribute__'
p29
S"<method-wrapper '__getattribute__' of exceptions.RuntimeError object>"
p30
sS'__class__'
p31
S"<type 'exceptions.RuntimeError'>"
p32
sS'__unicode__'
p33
S'<built-in method __unicode__ of exceptions.RuntimeError object>'
p34
sS'__delattr__'
p35
S"<method-wrapper '__delattr__' of exceptions.RuntimeError object>"
p36
sS'__subclasshook__'
p37
S'<built-in method __subclasshook__ of type object>'
p38
sS'__repr__'
p39
S"<method-wrapper '__repr__' of exceptions.RuntimeError object>"
p40
sS'args'
p41
S'(\'Failure to connect, tried 5 times:\\n(2003, "Can\\\'t connect to MySQL server on \\\'localhost\\\' (111)")\',)'
p42
sS'__dict__'
p43
S'{}'
p44
sS'__sizeof__'
p45
S'<built-in method __sizeof__ of exceptions.RuntimeError object>'
p46
sS'__doc__'
p47
S"'Unspecified run-time error.'"
p48
sS'__init__'
p49
S"<method-wrapper '__init__' of exceptions.RuntimeError object>"
p50
sS'__new__'
p51
S'<built-in method __new__ of type object>'
p52
ssS'evalue'
p53
S'Failure to connect, tried 5 times:\n(2003, "Can\'t connect to MySQL server on \'localhost\' (111)")'
p54
sS'request'
p55
ccopy_reg
_reconstructor
p56
(cgluon.html
BEAUTIFY
p57
c__builtin__
object
p58
NtRp59
(dp60
S'attributes'
p61
(dp62
sS'components'
p63
(lp64
g56
(cgluon.html
TABLE
p65
g58
NtRp66
(dp67
g61
(dp68
S'level'
p69
I5
ssS'parent'
p70
Nsg63
(lp71
g56
(cgluon.html
TR
p72
g58
NtRp73
(dp74
g61
(dp75
sg70
g66
sg63
(lp76
g56
(cgluon.html
TD
p77
g58
NtRp78
(dp79
g61
(dp80
S'_style'
p81
S'font-weight:bold;'
p82
ssg70
g73
sg63
(lp83
S'ajax'
p84
asbag56
(g77
g58
NtRp85
(dp86
g61
(dp87
S'_valign'
p88
S'top'
p89
ssg70
g73
sg63
(lp90
S':'
asbag56
(g77
g58
NtRp91
(dp92
g61
(dp93
sg70
g73
sg63
(lp94
g56
(g57
g58
NtRp95
(dp96
g61
(dp97
g69
I5
ssg70
g91
sg63
(lp98
S'False'
p99
asbasbasbag56
(g72
g58
NtRp100
(dp101
g61
(dp102
sg70
g66
sg63
(lp103
g56
(g77
g58
NtRp104
(dp105
g61
(dp106
g81
g82
ssg70
g100
sg63
(lp107
S'application'
p108
asbag56
(g77
g58
NtRp109
(dp110
g61
(dp111
g88
g89
ssg70
g100
sg63
(lp112
S':'
asbag56
(g77
g58
NtRp113
(dp114
g61
(dp115
sg70
g100
sg63
(lp116
g56
(g57
g58
NtRp117
(dp118
g61
(dp119
g69
I5
ssg70
g113
sg63
(lp120
S'welcome'
p121
asbasbasbag56
(g72
g58
NtRp122
(dp123
g61
(dp124
sg70
g66
sg63
(lp125
g56
(g77
g58
NtRp126
(dp127
g61
(dp128
g81
g82
ssg70
g122
sg63
(lp129
g41
asbag56
(g77
g58
NtRp130
(dp131
g61
(dp132
g88
g89
ssg70
g122
sg63
(lp133
S':'
asbag56
(g77
g58
NtRp134
(dp135
g61
(dp136
sg70
g122
sg63
(lp137
g56
(g57
g58
NtRp138
(dp139
g61
(dp140
g69
I5
ssg70
g134
sg63
(lp141
g56
(g65
g58
NtRp142
(dp143
g61
(dp144
g69
I4
ssg70
Nsg63
(lp145
sbasbasbasbag56
(g72
g58
NtRp146
(dp147
g61
(dp148
sg70
g66
sg63
(lp149
g56
(g77
g58
NtRp150
(dp151
g61
(dp152
g81
g82
ssg70
g146
sg63
(lp153
S'body'
p154
asbag56
(g77
g58
NtRp155
(dp156
g61
(dp157
g88
g89
ssg70
g146
sg63
(lp158
S':'
asbag56
(g77
g58
NtRp159
(dp160
g61
(dp161
sg70
g146
sg63
(lp162
g56
(g57
g58
NtRp163
(dp164
g61
(dp165
g69
I5
ssg70
g159
sg63
(lp166
S'<cStringIO.StringO object at 0x8e4ad20>'
p167
asbasbasbag56
(g72
g58
NtRp168
(dp169
g61
(dp170
sg70
g66
sg63
(lp171
g56
(g77
g58
NtRp172
(dp173
g61
(dp174
g81
g82
ssg70
g168
sg63
(lp175
S'client'
p176
asbag56
(g77
g58
NtRp177
(dp178
g61
(dp179
g88
g89
ssg70
g168
sg63
(lp180
S':'
asbag56
(g77
g58
NtRp181
(dp182
g61
(dp183
sg70
g168
sg63
(lp184
g56
(g57
g58
NtRp185
(dp186
g61
(dp187
g69
I5
ssg70
g181
sg63
(lp188
S'186.32.48.60'
p189
asbasbasbag56
(g72
g58
NtRp190
(dp191
g61
(dp192
sg70
g66
sg63
(lp193
g56
(g77
g58
NtRp194
(dp195
g61
(dp196
g81
g82
ssg70
g190
sg63
(lp197
S'controller'
p198
asbag56
(g77
g58
NtRp199
(dp200
g61
(dp201
g88
g89
ssg70
g190
sg63
(lp202
S':'
asbag56
(g77
g58
NtRp203
(dp204
g61
(dp205
sg70
g190
sg63
(lp206
g56
(g57
g58
NtRp207
(dp208
g61
(dp209
g69
I5
ssg70
g203
sg63
(lp210
S'default'
p211
asbasbasbag56
(g72
g58
NtRp212
(dp213
g61
(dp214
sg70
g66
sg63
(lp215
g56
(g77
g58
NtRp216
(dp217
g61
(dp218
g81
g82
ssg70
g212
sg63
(lp219
S'cookies'
p220
asbag56
(g77
g58
NtRp221
(dp222
g61
(dp223
g88
g89
ssg70
g212
sg63
(lp224
S':'
asbag56
(g77
g58
NtRp225
(dp226
g61
(dp227
sg70
g212
sg63
(lp228
g56
(g57
g58
NtRp229
(dp230
g61
(dp231
g69
I5
ssg70
g225
sg63
(lp232
g56
(g65
g58
NtRp233
(dp234
g61
(dp235
g69
I4
ssg70
Nsg63
(lp236
g56
(g72
g58
NtRp237
(dp238
g61
(dp239
sg70
g233
sg63
(lp240
g56
(g77
g58
NtRp241
(dp242
g61
(dp243
g81
g82
ssg70
g237
sg63
(lp244
S'session_id_init'
p245
asbag56
(g77
g58
NtRp246
(dp247
g61
(dp248
g88
g89
ssg70
g237
sg63
(lp249
S':'
asbag56
(g77
g58
NtRp250
(dp251
g61
(dp252
sg70
g237
sg63
(lp253
g56
(g57
g58
NtRp254
(dp255
g61
(dp256
g69
I4
ssg70
g250
sg63
(lp257
g56
(g65
g58
NtRp258
(dp259
g61
(dp260
g69
I3
ssg70
Nsg63
(lp261
g56
(g72
g58
NtRp262
(dp263
g61
(dp264
sg70
g258
sg63
(lp265
g56
(g77
g58
NtRp266
(dp267
g61
(dp268
g81
g82
ssg70
g262
sg63
(lp269
S'comment'
p270
asbag56
(g77
g58
NtRp271
(dp272
g61
(dp273
g88
g89
ssg70
g262
sg63
(lp274
S':'
asbag56
(g77
g58
NtRp275
(dp276
g61
(dp277
sg70
g262
sg63
(lp278
g56
(g57
g58
NtRp279
(dp280
g61
(dp281
g69
I3
ssg70
g275
sg63
(lp282
S''
asbasbasbag56
(g72
g58
NtRp283
(dp284
g61
(dp285
sg70
g258
sg63
(lp286
g56
(g77
g58
NtRp287
(dp288
g61
(dp289
g81
g82
ssg70
g283
sg63
(lp290
S'domain'
p291
asbag56
(g77
g58
NtRp292
(dp293
g61
(dp294
g88
g89
ssg70
g283
sg63
(lp295
S':'
asbag56
(g77
g58
NtRp296
(dp297
g61
(dp298
sg70
g283
sg63
(lp299
g56
(g57
g58
NtRp300
(dp301
g61
(dp302
g69
I3
ssg70
g296
sg63
(lp303
S''
asbasbasbag56
(g72
g58
NtRp304
(dp305
g61
(dp306
sg70
g258
sg63
(lp307
g56
(g77
g58
NtRp308
(dp309
g61
(dp310
g81
g82
ssg70
g304
sg63
(lp311
S'expires'
p312
asbag56
(g77
g58
NtRp313
(dp314
g61
(dp315
g88
g89
ssg70
g304
sg63
(lp316
S':'
asbag56
(g77
g58
NtRp317
(dp318
g61
(dp319
sg70
g304
sg63
(lp320
g56
(g57
g58
NtRp321
(dp322
g61
(dp323
g69
I3
ssg70
g317
sg63
(lp324
S''
asbasbasbag56
(g72
g58
NtRp325
(dp326
g61
(dp327
sg70
g258
sg63
(lp328
g56
(g77
g58
NtRp329
(dp330
g61
(dp331
g81
g82
ssg70
g325
sg63
(lp332
S'httponly'
p333
asbag56
(g77
g58
NtRp334
(dp335
g61
(dp336
g88
g89
ssg70
g325
sg63
(lp337
S':'
asbag56
(g77
g58
NtRp338
(dp339
g61
(dp340
sg70
g325
sg63
(lp341
g56
(g57
g58
NtRp342
(dp343
g61
(dp344
g69
I3
ssg70
g338
sg63
(lp345
S''
asbasbasbag56
(g72
g58
NtRp346
(dp347
g61
(dp348
sg70
g258
sg63
(lp349
g56
(g77
g58
NtRp350
(dp351
g61
(dp352
g81
g82
ssg70
g346
sg63
(lp353
S'max-age'
p354
asbag56
(g77
g58
NtRp355
(dp356
g61
(dp357
g88
g89
ssg70
g346
sg63
(lp358
S':'
asbag56
(g77
g58
NtRp359
(dp360
g61
(dp361
sg70
g346
sg63
(lp362
g56
(g57
g58
NtRp363
(dp364
g61
(dp365
g69
I3
ssg70
g359
sg63
(lp366
S''
asbasbasbag56
(g72
g58
NtRp367
(dp368
g61
(dp369
sg70
g258
sg63
(lp370
g56
(g77
g58
NtRp371
(dp372
g61
(dp373
g81
g82
ssg70
g367
sg63
(lp374
S'path'
p375
asbag56
(g77
g58
NtRp376
(dp377
g61
(dp378
g88
g89
ssg70
g367
sg63
(lp379
S':'
asbag56
(g77
g58
NtRp380
(dp381
g61
(dp382
sg70
g367
sg63
(lp383
g56
(g57
g58
NtRp384
(dp385
g61
(dp386
g69
I3
ssg70
g380
sg63
(lp387
S''
asbasbasbag56
(g72
g58
NtRp388
(dp389
g61
(dp390
sg70
g258
sg63
(lp391
g56
(g77
g58
NtRp392
(dp393
g61
(dp394
g81
g82
ssg70
g388
sg63
(lp395
S'secure'
p396
asbag56
(g77
g58
NtRp397
(dp398
g61
(dp399
g88
g89
ssg70
g388
sg63
(lp400
S':'
asbag56
(g77
g58
NtRp401
(dp402
g61
(dp403
sg70
g388
sg63
(lp404
g56
(g57
g58
NtRp405
(dp406
g61
(dp407
g69
I3
ssg70
g401
sg63
(lp408
S''
asbasbasbag56
(g72
g58
NtRp409
(dp410
g61
(dp411
sg70
g258
sg63
(lp412
g56
(g77
g58
NtRp413
(dp414
g61
(dp415
g81
g82
ssg70
g409
sg63
(lp416
S'version'
p417
asbag56
(g77
g58
NtRp418
(dp419
g61
(dp420
g88
g89
ssg70
g409
sg63
(lp421
S':'
asbag56
(g77
g58
NtRp422
(dp423
g61
(dp424
sg70
g409
sg63
(lp425
g56
(g57
g58
NtRp426
(dp427
g61
(dp428
g69
I3
ssg70
g422
sg63
(lp429
S''
asbasbasbasbasbasbasbasbasbasbasbag56
(g72
g58
NtRp430
(dp431
g61
(dp432
sg70
g66
sg63
(lp433
g56
(g77
g58
NtRp434
(dp435
g61
(dp436
g81
g82
ssg70
g430
sg63
(lp437
S'env'
p438
asbag56
(g77
g58
NtRp439
(dp440
g61
(dp441
g88
g89
ssg70
g430
sg63
(lp442
S':'
asbag56
(g77
g58
NtRp443
(dp444
g61
(dp445
sg70
g430
sg63
(lp446
g56
(g57
g58
NtRp447
(dp448
g61
(dp449
g69
I5
ssg70
g443
sg63
(lp450
g56
(g65
g58
NtRp451
(dp452
g61
(dp453
g69
I4
ssg70
Nsg63
(lp454
g56
(g72
g58
NtRp455
(dp456
g61
(dp457
sg70
g451
sg63
(lp458
g56
(g77
g58
NtRp459
(dp460
g61
(dp461
g81
g82
ssg70
g455
sg63
(lp462
S'app_folders'
p463
asbag56
(g77
g58
NtRp464
(dp465
g61
(dp466
g88
g89
ssg70
g455
sg63
(lp467
S':'
asbag56
(g77
g58
NtRp468
(dp469
g61
(dp470
sg70
g455
sg63
(lp471
g56
(g57
g58
NtRp472
(dp473
g61
(dp474
g69
I4
ssg70
g468
sg63
(lp475
S"set(['/home/arvin/web2py/applications/admin/', '/home/arvin/web2py/applications/welcome/', '/home/arvin/web2py/applications/examples/'])"
p476
asbasbasbag56
(g72
g58
NtRp477
(dp478
g61
(dp479
sg70
g451
sg63
(lp480
g56
(g77
g58
NtRp481
(dp482
g61
(dp483
g81
g82
ssg70
g477
sg63
(lp484
S'applications_parent'
p485
asbag56
(g77
g58
NtRp486
(dp487
g61
(dp488
g88
g89
ssg70
g477
sg63
(lp489
S':'
asbag56
(g77
g58
NtRp490
(dp491
g61
(dp492
sg70
g477
sg63
(lp493
g56
(g57
g58
NtRp494
(dp495
g61
(dp496
g69
I4
ssg70
g490
sg63
(lp497
S'/home/arvin/web2py'
p498
asbasbasbag56
(g72
g58
NtRp499
(dp500
g61
(dp501
sg70
g451
sg63
(lp502
g56
(g77
g58
NtRp503
(dp504
g61
(dp505
g81
g82
ssg70
g499
sg63
(lp506
S'content_length'
p507
asbag56
(g77
g58
NtRp508
(dp509
g61
(dp510
g88
g89
ssg70
g499
sg63
(lp511
S':'
asbag56
(g77
g58
NtRp512
(dp513
g61
(dp514
sg70
g499
sg63
(lp515
g56
(g57
g58
NtRp516
(dp517
g61
(dp518
g69
I4
ssg70
g512
sg63
(lp519
S''
asbasbasbag56
(g72
g58
NtRp520
(dp521
g61
(dp522
sg70
g451
sg63
(lp523
g56
(g77
g58
NtRp524
(dp525
g61
(dp526
g81
g82
ssg70
g520
sg63
(lp527
S'content_type'
p528
asbag56
(g77
g58
NtRp529
(dp530
g61
(dp531
g88
g89
ssg70
g520
sg63
(lp532
S':'
asbag56
(g77
g58
NtRp533
(dp534
g61
(dp535
sg70
g520
sg63
(lp536
g56
(g57
g58
NtRp537
(dp538
g61
(dp539
g69
I4
ssg70
g533
sg63
(lp540
S''
asbasbasbag56
(g72
g58
NtRp541
(dp542
g61
(dp543
sg70
g451
sg63
(lp544
g56
(g77
g58
NtRp545
(dp546
g61
(dp547
g81
g82
ssg70
g541
sg63
(lp548
S'db_sessions'
p549
asbag56
(g77
g58
NtRp550
(dp551
g61
(dp552
g88
g89
ssg70
g541
sg63
(lp553
S':'
asbag56
(g77
g58
NtRp554
(dp555
g61
(dp556
sg70
g541
sg63
(lp557
g56
(g57
g58
NtRp558
(dp559
g61
(dp560
g69
I4
ssg70
g554
sg63
(lp561
S'set([])'
p562
asbasbasbag56
(g72
g58
NtRp563
(dp564
g61
(dp565
sg70
g451
sg63
(lp566
g56
(g77
g58
NtRp567
(dp568
g61
(dp569
g81
g82
ssg70
g563
sg63
(lp570
S'debugging'
p571
asbag56
(g77
g58
NtRp572
(dp573
g61
(dp574
g88
g89
ssg70
g563
sg63
(lp575
S':'
asbag56
(g77
g58
NtRp576
(dp577
g61
(dp578
sg70
g563
sg63
(lp579
g56
(g57
g58
NtRp580
(dp581
g61
(dp582
g69
I4
ssg70
g576
sg63
(lp583
g99
asbasbasbag56
(g72
g58
NtRp584
(dp585
g61
(dp586
sg70
g451
sg63
(lp587
g56
(g77
g58
NtRp588
(dp589
g61
(dp590
g81
g82
ssg70
g584
sg63
(lp591
S'document_root'
p592
asbag56
(g77
g58
NtRp593
(dp594
g61
(dp595
g88
g89
ssg70
g584
sg63
(lp596
S':'
asbag56
(g77
g58
NtRp597
(dp598
g61
(dp599
sg70
g584
sg63
(lp600
g56
(g57
g58
NtRp601
(dp602
g61
(dp603
g69
I4
ssg70
g597
sg63
(lp604
S'/usr/local/nginx/html'
p605
asbasbasbag56
(g72
g58
NtRp606
(dp607
g61
(dp608
sg70
g451
sg63
(lp609
g56
(g77
g58
NtRp610
(dp611
g61
(dp612
g81
g82
ssg70
g606
sg63
(lp613
S'gluon_parent'
p614
asbag56
(g77
g58
NtRp615
(dp616
g61
(dp617
g88
g89
ssg70
g606
sg63
(lp618
S':'
asbag56
(g77
g58
NtRp619
(dp620
g61
(dp621
sg70
g606
sg63
(lp622
g56
(g57
g58
NtRp623
(dp624
g61
(dp625
g69
I4
ssg70
g619
sg63
(lp626
g498
asbasbasbag56
(g72
g58
NtRp627
(dp628
g61
(dp629
sg70
g451
sg63
(lp630
g56
(g77
g58
NtRp631
(dp632
g61
(dp633
g81
g82
ssg70
g627
sg63
(lp634
S'http_accept'
p635
asbag56
(g77
g58
NtRp636
(dp637
g61
(dp638
g88
g89
ssg70
g627
sg63
(lp639
S':'
asbag56
(g77
g58
NtRp640
(dp641
g61
(dp642
sg70
g627
sg63
(lp643
g56
(g57
g58
NtRp644
(dp645
g61
(dp646
g69
I4
ssg70
g640
sg63
(lp647
S'text/html,application/xhtml+xml,application/xml;q=0.9,*/*;q=0.8'
p648
asbasbasbag56
(g72
g58
NtRp649
(dp650
g61
(dp651
sg70
g451
sg63
(lp652
g56
(g77
g58
NtRp653
(dp654
g61
(dp655
g81
g82
ssg70
g649
sg63
(lp656
S'http_accept_charset'
p657
asbag56
(g77
g58
NtRp658
(dp659
g61
(dp660
g88
g89
ssg70
g649
sg63
(lp661
S':'
asbag56
(g77
g58
NtRp662
(dp663
g61
(dp664
sg70
g649
sg63
(lp665
g56
(g57
g58
NtRp666
(dp667
g61
(dp668
g69
I4
ssg70
g662
sg63
(lp669
S'ISO-8859-1,utf-8;q=0.7,*;q=0.7'
p670
asbasbasbag56
(g72
g58
NtRp671
(dp672
g61
(dp673
sg70
g451
sg63
(lp674
g56
(g77
g58
NtRp675
(dp676
g61
(dp677
g81
g82
ssg70
g671
sg63
(lp678
S'http_accept_encoding'
p679
asbag56
(g77
g58
NtRp680
(dp681
g61
(dp682
g88
g89
ssg70
g671
sg63
(lp683
S':'
asbag56
(g77
g58
NtRp684
(dp685
g61
(dp686
sg70
g671
sg63
(lp687
g56
(g57
g58
NtRp688
(dp689
g61
(dp690
g69
I4
ssg70
g684
sg63
(lp691
S'gzip, deflate'
p692
asbasbasbag56
(g72
g58
NtRp693
(dp694
g61
(dp695
sg70
g451
sg63
(lp696
g56
(g77
g58
NtRp697
(dp698
g61
(dp699
g81
g82
ssg70
g693
sg63
(lp700
S'http_accept_language'
p701
asbag56
(g77
g58
NtRp702
(dp703
g61
(dp704
g88
g89
ssg70
g693
sg63
(lp705
S':'
asbag56
(g77
g58
NtRp706
(dp707
g61
(dp708
sg70
g693
sg63
(lp709
g56
(g57
g58
NtRp710
(dp711
g61
(dp712
g69
I4
ssg70
g706
sg63
(lp713
S'en-us,en;q=0.5'
p714
asbasbasbag56
(g72
g58
NtRp715
(dp716
g61
(dp717
sg70
g451
sg63
(lp718
g56
(g77
g58
NtRp719
(dp720
g61
(dp721
g81
g82
ssg70
g715
sg63
(lp722
S'http_connection'
p723
asbag56
(g77
g58
NtRp724
(dp725
g61
(dp726
g88
g89
ssg70
g715
sg63
(lp727
S':'
asbag56
(g77
g58
NtRp728
(dp729
g61
(dp730
sg70
g715
sg63
(lp731
g56
(g57
g58
NtRp732
(dp733
g61
(dp734
g69
I4
ssg70
g728
sg63
(lp735
S'keep-alive'
p736
asbasbasbag56
(g72
g58
NtRp737
(dp738
g61
(dp739
sg70
g451
sg63
(lp740
g56
(g77
g58
NtRp741
(dp742
g61
(dp743
g81
g82
ssg70
g737
sg63
(lp744
S'http_cookie'
p745
asbag56
(g77
g58
NtRp746
(dp747
g61
(dp748
g88
g89
ssg70
g737
sg63
(lp749
S':'
asbag56
(g77
g58
NtRp750
(dp751
g61
(dp752
sg70
g737
sg63
(lp753
g56
(g57
g58
NtRp754
(dp755
g61
(dp756
g69
I4
ssg70
g750
sg63
(lp757
S'__utma=159863860.1937463137.1307715134.1308586258.1308598504.25; __utmz=159863860.1307715134.1.1.utmcsr=(direct)|utmccn=(direct)|utmcmd=(none); session_id_init=186.32.48.60-302c03b0-d800-439d-9ea0-600a4ab492a9'
p758
asbasbasbag56
(g72
g58
NtRp759
(dp760
g61
(dp761
sg70
g451
sg63
(lp762
g56
(g77
g58
NtRp763
(dp764
g61
(dp765
g81
g82
ssg70
g759
sg63
(lp766
S'http_host'
p767
asbag56
(g77
g58
NtRp768
(dp769
g61
(dp770
g88
g89
ssg70
g759
sg63
(lp771
S':'
asbag56
(g77
g58
NtRp772
(dp773
g61
(dp774
sg70
g759
sg63
(lp775
g56
(g57
g58
NtRp776
(dp777
g61
(dp778
g69
I4
ssg70
g772
sg63
(lp779
S'a.xchg.com'
p780
asbasbasbag56
(g72
g58
NtRp781
(dp782
g61
(dp783
sg70
g451
sg63
(lp784
g56
(g77
g58
NtRp785
(dp786
g61
(dp787
g81
g82
ssg70
g781
sg63
(lp788
S'http_keep_alive'
p789
asbag56
(g77
g58
NtRp790
(dp791
g61
(dp792
g88
g89
ssg70
g781
sg63
(lp793
S':'
asbag56
(g77
g58
NtRp794
(dp795
g61
(dp796
sg70
g781
sg63
(lp797
g56
(g57
g58
NtRp798
(dp799
g61
(dp800
g69
I4
ssg70
g794
sg63
(lp801
S'115'
p802
asbasbasbag56
(g72
g58
NtRp803
(dp804
g61
(dp805
sg70
g451
sg63
(lp806
g56
(g77
g58
NtRp807
(dp808
g61
(dp809
g81
g82
ssg70
g803
sg63
(lp810
S'http_user_agent'
p811
asbag56
(g77
g58
NtRp812
(dp813
g61
(dp814
g88
g89
ssg70
g803
sg63
(lp815
S':'
asbag56
(g77
g58
NtRp816
(dp817
g61
(dp818
sg70
g803
sg63
(lp819
g56
(g57
g58
NtRp820
(dp821
g61
(dp822
g69
I4
ssg70
g816
sg63
(lp823
S'Mozilla/5.0 (Windows NT 6.1; WOW64; rv:2.0.1) Gecko/20100101 Firefox/4.0.1'
p824
asbasbasbag56
(g72
g58
NtRp825
(dp826
g61
(dp827
sg70
g451
sg63
(lp828
g56
(g77
g58
NtRp829
(dp830
g61
(dp831
g81
g82
ssg70
g825
sg63
(lp832
S'path_info'
p833
asbag56
(g77
g58
NtRp834
(dp835
g61
(dp836
g88
g89
ssg70
g825
sg63
(lp837
S':'
asbag56
(g77
g58
NtRp838
(dp839
g61
(dp840
sg70
g825
sg63
(lp841
g56
(g57
g58
NtRp842
(dp843
g61
(dp844
g69
I4
ssg70
g838
sg63
(lp845
S'/welcome/default/index'
p846
asbasbasbag56
(g72
g58
NtRp847
(dp848
g61
(dp849
sg70
g451
sg63
(lp850
g56
(g77
g58
NtRp851
(dp852
g61
(dp853
g81
g82
ssg70
g847
sg63
(lp854
S'query_string'
p855
asbag56
(g77
g58
NtRp856
(dp857
g61
(dp858
g88
g89
ssg70
g847
sg63
(lp859
S':'
asbag56
(g77
g58
NtRp860
(dp861
g61
(dp862
sg70
g847
sg63
(lp863
g56
(g57
g58
NtRp864
(dp865
g61
(dp866
g69
I4
ssg70
g860
sg63
(lp867
S''
asbasbasbag56
(g72
g58
NtRp868
(dp869
g61
(dp870
sg70
g451
sg63
(lp871
g56
(g77
g58
NtRp872
(dp873
g61
(dp874
g81
g82
ssg70
g868
sg63
(lp875
S'remote_addr'
p876
asbag56
(g77
g58
NtRp877
(dp878
g61
(dp879
g88
g89
ssg70
g868
sg63
(lp880
S':'
asbag56
(g77
g58
NtRp881
(dp882
g61
(dp883
sg70
g868
sg63
(lp884
g56
(g57
g58
NtRp885
(dp886
g61
(dp887
g69
I4
ssg70
g881
sg63
(lp888
g189
asbasbasbag56
(g72
g58
NtRp889
(dp890
g61
(dp891
sg70
g451
sg63
(lp892
g56
(g77
g58
NtRp893
(dp894
g61
(dp895
g81
g82
ssg70
g889
sg63
(lp896
S'remote_port'
p897
asbag56
(g77
g58
NtRp898
(dp899
g61
(dp900
g88
g89
ssg70
g889
sg63
(lp901
S':'
asbag56
(g77
g58
NtRp902
(dp903
g61
(dp904
sg70
g889
sg63
(lp905
g56
(g57
g58
NtRp906
(dp907
g61
(dp908
g69
I4
ssg70
g902
sg63
(lp909
S'62730'
p910
asbasbasbag56
(g72
g58
NtRp911
(dp912
g61
(dp913
sg70
g451
sg63
(lp914
g56
(g77
g58
NtRp915
(dp916
g61
(dp917
g81
g82
ssg70
g911
sg63
(lp918
S'request_method'
p919
asbag56
(g77
g58
NtRp920
(dp921
g61
(dp922
g88
g89
ssg70
g911
sg63
(lp923
S':'
asbag56
(g77
g58
NtRp924
(dp925
g61
(dp926
sg70
g911
sg63
(lp927
g56
(g57
g58
NtRp928
(dp929
g61
(dp930
g69
I4
ssg70
g924
sg63
(lp931
S'GET'
p932
asbasbasbag56
(g72
g58
NtRp933
(dp934
g61
(dp935
sg70
g451
sg63
(lp936
g56
(g77
g58
NtRp937
(dp938
g61
(dp939
g81
g82
ssg70
g933
sg63
(lp940
S'request_uri'
p941
asbag56
(g77
g58
NtRp942
(dp943
g61
(dp944
g88
g89
ssg70
g933
sg63
(lp945
S':'
asbag56
(g77
g58
NtRp946
(dp947
g61
(dp948
sg70
g933
sg63
(lp949
g56
(g57
g58
NtRp950
(dp951
g61
(dp952
g69
I4
ssg70
g946
sg63
(lp953
S'/welcome/default/index'
p954
asbasbasbag56
(g72
g58
NtRp955
(dp956
g61
(dp957
sg70
g451
sg63
(lp958
g56
(g77
g58
NtRp959
(dp960
g61
(dp961
g81
g82
ssg70
g955
sg63
(lp962
S'server_name'
p963
asbag56
(g77
g58
NtRp964
(dp965
g61
(dp966
g88
g89
ssg70
g955
sg63
(lp967
S':'
asbag56
(g77
g58
NtRp968
(dp969
g61
(dp970
sg70
g955
sg63
(lp971
g56
(g57
g58
NtRp972
(dp973
g61
(dp974
g69
I4
ssg70
g968
sg63
(lp975
S'a.xchg.com'
p976
asbasbasbag56
(g72
g58
NtRp977
(dp978
g61
(dp979
sg70
g451
sg63
(lp980
g56
(g77
g58
NtRp981
(dp982
g61
(dp983
g81
g82
ssg70
g977
sg63
(lp984
S'server_port'
p985
asbag56
(g77
g58
NtRp986
(dp987
g61
(dp988
g88
g89
ssg70
g977
sg63
(lp989
S':'
asbag56
(g77
g58
NtRp990
(dp991
g61
(dp992
sg70
g977
sg63
(lp993
g56
(g57
g58
NtRp994
(dp995
g61
(dp996
g69
I4
ssg70
g990
sg63
(lp997
S'80'
p998
asbasbasbag56
(g72
g58
NtRp999
(dp1000
g61
(dp1001
sg70
g451
sg63
(lp1002
g56
(g77
g58
NtRp1003
(dp1004
g61
(dp1005
g81
g82
ssg70
g999
sg63
(lp1006
S'server_protocol'
p1007
asbag56
(g77
g58
NtRp1008
(dp1009
g61
(dp1010
g88
g89
ssg70
g999
sg63
(lp1011
S':'
asbag56
(g77
g58
NtRp1012
(dp1013
g61
(dp1014
sg70
g999
sg63
(lp1015
g56
(g57
g58
NtRp1016
(dp1017
g61
(dp1018
g69
I4
ssg70
g1012
sg63
(lp1019
S'HTTP/1.1'
p1020
asbasbasbag56
(g72
g58
NtRp1021
(dp1022
g61
(dp1023
sg70
g451
sg63
(lp1024
g56
(g77
g58
NtRp1025
(dp1026
g61
(dp1027
g81
g82
ssg70
g1021
sg63
(lp1028
S'uwsgi_scheme'
p1029
asbag56
(g77
g58
NtRp1030
(dp1031
g61
(dp1032
g88
g89
ssg70
g1021
sg63
(lp1033
S':'
asbag56
(g77
g58
NtRp1034
(dp1035
g61
(dp1036
sg70
g1021
sg63
(lp1037
g56
(g57
g58
NtRp1038
(dp1039
g61
(dp1040
g69
I4
ssg70
g1034
sg63
(lp1041
S'http'
p1042
asbasbasbag56
(g72
g58
NtRp1043
(dp1044
g61
(dp1045
sg70
g451
sg63
(lp1046
g56
(g77
g58
NtRp1047
(dp1048
g61
(dp1049
g81
g82
ssg70
g1043
sg63
(lp1050
S'uwsgi_version'
p1051
asbag56
(g77
g58
NtRp1052
(dp1053
g61
(dp1054
g88
g89
ssg70
g1043
sg63
(lp1055
S':'
asbag56
(g77
g58
NtRp1056
(dp1057
g61
(dp1058
sg70
g1043
sg63
(lp1059
g56
(g57
g58
NtRp1060
(dp1061
g61
(dp1062
g69
I4
ssg70
g1056
sg63
(lp1063
S'0.9.6.8'
p1064
asbasbasbag56
(g72
g58
NtRp1065
(dp1066
g61
(dp1067
sg70
g451
sg63
(lp1068
g56
(g77
g58
NtRp1069
(dp1070
g61
(dp1071
g81
g82
ssg70
g1065
sg63
(lp1072
S'web2py_path'
p1073
asbag56
(g77
g58
NtRp1074
(dp1075
g61
(dp1076
g88
g89
ssg70
g1065
sg63
(lp1077
S':'
asbag56
(g77
g58
NtRp1078
(dp1079
g61
(dp1080
sg70
g1065
sg63
(lp1081
g56
(g57
g58
NtRp1082
(dp1083
g61
(dp1084
g69
I4
ssg70
g1078
sg63
(lp1085
g498
asbasbasbag56
(g72
g58
NtRp1086
(dp1087
g61
(dp1088
sg70
g451
sg63
(lp1089
g56
(g77
g58
NtRp1090
(dp1091
g61
(dp1092
g81
g82
ssg70
g1086
sg63
(lp1093
S'web2py_version'
p1094
asbag56
(g77
g58
NtRp1095
(dp1096
g61
(dp1097
g88
g89
ssg70
g1086
sg63
(lp1098
S':'
asbag56
(g77
g58
NtRp1099
(dp1100
g61
(dp1101
sg70
g1086
sg63
(lp1102
g56
(g57
g58
NtRp1103
(dp1104
g61
(dp1105
g69
I4
ssg70
g1099
sg63
(lp1106
S'Version 1.96.4 (2011-06-15 22:09:34)\n'
p1107
asbasbasbag56
(g72
g58
NtRp1108
(dp1109
g61
(dp1110
sg70
g451
sg63
(lp1111
g56
(g77
g58
NtRp1112
(dp1113
g61
(dp1114
g81
g82
ssg70
g1108
sg63
(lp1115
S'wsgi_errors'
p1116
asbag56
(g77
g58
NtRp1117
(dp1118
g61
(dp1119
g88
g89
ssg70
g1108
sg63
(lp1120
S':'
asbag56
(g77
g58
NtRp1121
(dp1122
g61
(dp1123
sg70
g1108
sg63
(lp1124
g56
(g57
g58
NtRp1125
(dp1126
g61
(dp1127
g69
I4
ssg70
g1121
sg63
(lp1128
S"<open file 'wsgi_input', mode 'w' at 0x9110288>"
p1129
asbasbasbag56
(g72
g58
NtRp1130
(dp1131
g61
(dp1132
sg70
g451
sg63
(lp1133
g56
(g77
g58
NtRp1134
(dp1135
g61
(dp1136
g81
g82
ssg70
g1130
sg63
(lp1137
S'wsgi_file_wrapper'
p1138
asbag56
(g77
g58
NtRp1139
(dp1140
g61
(dp1141
g88
g89
ssg70
g1130
sg63
(lp1142
S':'
asbag56
(g77
g58
NtRp1143
(dp1144
g61
(dp1145
sg70
g1130
sg63
(lp1146
g56
(g57
g58
NtRp1147
(dp1148
g61
(dp1149
g69
I4
ssg70
g1143
sg63
(lp1150
S'<built-in function uwsgi_sendfile>'
p1151
asbasbasbag56
(g72
g58
NtRp1152
(dp1153
g61
(dp1154
sg70
g451
sg63
(lp1155
g56
(g77
g58
NtRp1156
(dp1157
g61
(dp1158
g81
g82
ssg70
g1152
sg63
(lp1159
S'wsgi_input'
p1160
asbag56
(g77
g58
NtRp1161
(dp1162
g61
(dp1163
g88
g89
ssg70
g1152
sg63
(lp1164
S':'
asbag56
(g77
g58
NtRp1165
(dp1166
g61
(dp1167
sg70
g1152
sg63
(lp1168
g56
(g57
g58
NtRp1169
(dp1170
g61
(dp1171
g69
I4
ssg70
g1165
sg63
(lp1172
S"<open file 'wsgi_input', mode 'r' at 0x9110d88>"
p1173
asbasbasbag56
(g72
g58
NtRp1174
(dp1175
g61
(dp1176
sg70
g451
sg63
(lp1177
g56
(g77
g58
NtRp1178
(dp1179
g61
(dp1180
g81
g82
ssg70
g1174
sg63
(lp1181
S'wsgi_multiprocess'
p1182
asbag56
(g77
g58
NtRp1183
(dp1184
g61
(dp1185
g88
g89
ssg70
g1174
sg63
(lp1186
S':'
asbag56
(g77
g58
NtRp1187
(dp1188
g61
(dp1189
sg70
g1174
sg63
(lp1190
g56
(g57
g58
NtRp1191
(dp1192
g61
(dp1193
g69
I4
ssg70
g1187
sg63
(lp1194
g99
asbasbasbag56
(g72
g58
NtRp1195
(dp1196
g61
(dp1197
sg70
g451
sg63
(lp1198
g56
(g77
g58
NtRp1199
(dp1200
g61
(dp1201
g81
g82
ssg70
g1195
sg63
(lp1202
S'wsgi_multithread'
p1203
asbag56
(g77
g58
NtRp1204
(dp1205
g61
(dp1206
g88
g89
ssg70
g1195
sg63
(lp1207
S':'
asbag56
(g77
g58
NtRp1208
(dp1209
g61
(dp1210
sg70
g1195
sg63
(lp1211
g56
(g57
g58
NtRp1212
(dp1213
g61
(dp1214
g69
I4
ssg70
g1208
sg63
(lp1215
g99
asbasbasbag56
(g72
g58
NtRp1216
(dp1217
g61
(dp1218
sg70
g451
sg63
(lp1219
g56
(g77
g58
NtRp1220
(dp1221
g61
(dp1222
g81
g82
ssg70
g1216
sg63
(lp1223
S'wsgi_run_once'
p1224
asbag56
(g77
g58
NtRp1225
(dp1226
g61
(dp1227
g88
g89
ssg70
g1216
sg63
(lp1228
S':'
asbag56
(g77
g58
NtRp1229
(dp1230
g61
(dp1231
sg70
g1216
sg63
(lp1232
g56
(g57
g58
NtRp1233
(dp1234
g61
(dp1235
g69
I4
ssg70
g1229
sg63
(lp1236
g99
asbasbasbag56
(g72
g58
NtRp1237
(dp1238
g61
(dp1239
sg70
g451
sg63
(lp1240
g56
(g77
g58
NtRp1241
(dp1242
g61
(dp1243
g81
g82
ssg70
g1237
sg63
(lp1244
S'wsgi_url_scheme'
p1245
asbag56
(g77
g58
NtRp1246
(dp1247
g61
(dp1248
g88
g89
ssg70
g1237
sg63
(lp1249
S':'
asbag56
(g77
g58
NtRp1250
(dp1251
g61
(dp1252
sg70
g1237
sg63
(lp1253
g56
(g57
g58
NtRp1254
(dp1255
g61
(dp1256
g69
I4
ssg70
g1250
sg63
(lp1257
S'http'
p1258
asbasbasbag56
(g72
g58
NtRp1259
(dp1260
g61
(dp1261
sg70
g451
sg63
(lp1262
g56
(g77
g58
NtRp1263
(dp1264
g61
(dp1265
g81
g82
ssg70
g1259
sg63
(lp1266
S'wsgi_version'
p1267
asbag56
(g77
g58
NtRp1268
(dp1269
g61
(dp1270
g88
g89
ssg70
g1259
sg63
(lp1271
S':'
asbag56
(g77
g58
NtRp1272
(dp1273
g61
(dp1274
sg70
g1259
sg63
(lp1275
g56
(g57
g58
NtRp1276
(dp1277
g61
(dp1278
g69
I4
ssg70
g1272
sg63
(lp1279
g56
(g65
g58
NtRp1280
(dp1281
g61
(dp1282
g69
I3
ssg70
Nsg63
(lp1283
g56
(g72
g58
NtRp1284
(dp1285
g61
(dp1286
sg70
g1280
sg63
(lp1287
g56
(g77
g58
NtRp1288
(dp1289
g61
(dp1290
sg70
g1284
sg63
(lp1291
g56
(g57
g58
NtRp1292
(dp1293
g61
(dp1294
g69
I3
ssg70
g1288
sg63
(lp1295
S'1'
asbasbasbag56
(g72
g58
NtRp1296
(dp1297
g61
(dp1298
sg70
g1280
sg63
(lp1299
g56
(g77
g58
NtRp1300
(dp1301
g61
(dp1302
sg70
g1296
sg63
(lp1303
g56
(g57
g58
NtRp1304
(dp1305
g61
(dp1306
g69
I3
ssg70
g1300
sg63
(lp1307
S'0'
asbasbasbasbasbasbasbasbasbasbasbag56
(g72
g58
NtRp1308
(dp1309
g61
(dp1310
sg70
g66
sg63
(lp1311
g56
(g77
g58
NtRp1312
(dp1313
g61
(dp1314
g81
g82
ssg70
g1308
sg63
(lp1315
S'extension'
p1316
asbag56
(g77
g58
NtRp1317
(dp1318
g61
(dp1319
g88
g89
ssg70
g1308
sg63
(lp1320
S':'
asbag56
(g77
g58
NtRp1321
(dp1322
g61
(dp1323
sg70
g1308
sg63
(lp1324
g56
(g57
g58
NtRp1325
(dp1326
g61
(dp1327
g69
I5
ssg70
g1321
sg63
(lp1328
S'html'
p1329
asbasbasbag56
(g72
g58
NtRp1330
(dp1331
g61
(dp1332
sg70
g66
sg63
(lp1333
g56
(g77
g58
NtRp1334
(dp1335
g61
(dp1336
g81
g82
ssg70
g1330
sg63
(lp1337
S'folder'
p1338
asbag56
(g77
g58
NtRp1339
(dp1340
g61
(dp1341
g88
g89
ssg70
g1330
sg63
(lp1342
S':'
asbag56
(g77
g58
NtRp1343
(dp1344
g61
(dp1345
sg70
g1330
sg63
(lp1346
g56
(g57
g58
NtRp1347
(dp1348
g61
(dp1349
g69
I5
ssg70
g1343
sg63
(lp1350
S'/home/arvin/web2py/applications/welcome/'
p1351
asbasbasbag56
(g72
g58
NtRp1352
(dp1353
g61
(dp1354
sg70
g66
sg63
(lp1355
g56
(g77
g58
NtRp1356
(dp1357
g61
(dp1358
g81
g82
ssg70
g1352
sg63
(lp1359
S'function'
p1360
asbag56
(g77
g58
NtRp1361
(dp1362
g61
(dp1363
g88
g89
ssg70
g1352
sg63
(lp1364
S':'
asbag56
(g77
g58
NtRp1365
(dp1366
g61
(dp1367
sg70
g1352
sg63
(lp1368
g56
(g57
g58
NtRp1369
(dp1370
g61
(dp1371
g69
I5
ssg70
g1365
sg63
(lp1372
S'index'
p1373
asbasbasbag56
(g72
g58
NtRp1374
(dp1375
g61
(dp1376
sg70
g66
sg63
(lp1377
g56
(g77
g58
NtRp1378
(dp1379
g61
(dp1380
g81
g82
ssg70
g1374
sg63
(lp1381
S'get_vars'
p1382
asbag56
(g77
g58
NtRp1383
(dp1384
g61
(dp1385
g88
g89
ssg70
g1374
sg63
(lp1386
S':'
asbag56
(g77
g58
NtRp1387
(dp1388
g61
(dp1389
sg70
g1374
sg63
(lp1390
g56
(g57
g58
NtRp1391
(dp1392
g61
(dp1393
g69
I5
ssg70
g1387
sg63
(lp1394
g56
(g65
g58
NtRp1395
(dp1396
g61
(dp1397
g69
I4
ssg70
Nsg63
(lp1398
sbasbasbasbag56
(g72
g58
NtRp1399
(dp1400
g61
(dp1401
sg70
g66
sg63
(lp1402
g56
(g77
g58
NtRp1403
(dp1404
g61
(dp1405
g81
g82
ssg70
g1399
sg63
(lp1406
S'is_https'
p1407
asbag56
(g77
g58
NtRp1408
(dp1409
g61
(dp1410
g88
g89
ssg70
g1399
sg63
(lp1411
S':'
asbag56
(g77
g58
NtRp1412
(dp1413
g61
(dp1414
sg70
g1399
sg63
(lp1415
g56
(g57
g58
NtRp1416
(dp1417
g61
(dp1418
g69
I5
ssg70
g1412
sg63
(lp1419
g99
asbasbasbag56
(g72
g58
NtRp1420
(dp1421
g61
(dp1422
sg70
g66
sg63
(lp1423
g56
(g77
g58
NtRp1424
(dp1425
g61
(dp1426
g81
g82
ssg70
g1420
sg63
(lp1427
S'is_local'
p1428
asbag56
(g77
g58
NtRp1429
(dp1430
g61
(dp1431
g88
g89
ssg70
g1420
sg63
(lp1432
S':'
asbag56
(g77
g58
NtRp1433
(dp1434
g61
(dp1435
sg70
g1420
sg63
(lp1436
g56
(g57
g58
NtRp1437
(dp1438
g61
(dp1439
g69
I5
ssg70
g1433
sg63
(lp1440
g99
asbasbasbag56
(g72
g58
NtRp1441
(dp1442
g61
(dp1443
sg70
g66
sg63
(lp1444
g56
(g77
g58
NtRp1445
(dp1446
g61
(dp1447
g81
g82
ssg70
g1441
sg63
(lp1448
S'is_restful'
p1449
asbag56
(g77
g58
NtRp1450
(dp1451
g61
(dp1452
g88
g89
ssg70
g1441
sg63
(lp1453
S':'
asbag56
(g77
g58
NtRp1454
(dp1455
g61
(dp1456
sg70
g1441
sg63
(lp1457
g56
(g57
g58
NtRp1458
(dp1459
g61
(dp1460
g69
I5
ssg70
g1454
sg63
(lp1461
g99
asbasbasbag56
(g72
g58
NtRp1462
(dp1463
g61
(dp1464
sg70
g66
sg63
(lp1465
g56
(g77
g58
NtRp1466
(dp1467
g61
(dp1468
g81
g82
ssg70
g1462
sg63
(lp1469
S'now'
p1470
asbag56
(g77
g58
NtRp1471
(dp1472
g61
(dp1473
g88
g89
ssg70
g1462
sg63
(lp1474
S':'
asbag56
(g77
g58
NtRp1475
(dp1476
g61
(dp1477
sg70
g1462
sg63
(lp1478
g56
(g57
g58
NtRp1479
(dp1480
g61
(dp1481
g69
I5
ssg70
g1475
sg63
(lp1482
S'datetime.datetime(2011, 6, 21, 13, 56, 45, 248563)'
p1483
asbasbasbag56
(g72
g58
NtRp1484
(dp1485
g61
(dp1486
sg70
g66
sg63
(lp1487
g56
(g77
g58
NtRp1488
(dp1489
g61
(dp1490
g81
g82
ssg70
g1484
sg63
(lp1491
S'post_vars'
p1492
asbag56
(g77
g58
NtRp1493
(dp1494
g61
(dp1495
g88
g89
ssg70
g1484
sg63
(lp1496
S':'
asbag56
(g77
g58
NtRp1497
(dp1498
g61
(dp1499
sg70
g1484
sg63
(lp1500
g56
(g57
g58
NtRp1501
(dp1502
g61
(dp1503
g69
I5
ssg70
g1497
sg63
(lp1504
g56
(g65
g58
NtRp1505
(dp1506
g61
(dp1507
g69
I4
ssg70
Nsg63
(lp1508
sbasbasbasbag56
(g72
g58
NtRp1509
(dp1510
g61
(dp1511
sg70
g66
sg63
(lp1512
g56
(g77
g58
NtRp1513
(dp1514
g61
(dp1515
g81
g82
ssg70
g1509
sg63
(lp1516
S'url'
p1517
asbag56
(g77
g58
NtRp1518
(dp1519
g61
(dp1520
g88
g89
ssg70
g1509
sg63
(lp1521
S':'
asbag56
(g77
g58
NtRp1522
(dp1523
g61
(dp1524
sg70
g1509
sg63
(lp1525
g56
(g57
g58
NtRp1526
(dp1527
g61
(dp1528
g69
I5
ssg70
g1522
sg63
(lp1529
S'/welcome/default/index'
p1530
asbasbasbag56
(g72
g58
NtRp1531
(dp1532
g61
(dp1533
sg70
g66
sg63
(lp1534
g56
(g77
g58
NtRp1535
(dp1536
g61
(dp1537
g81
g82
ssg70
g1531
sg63
(lp1538
S'uuid'
p1539
asbag56
(g77
g58
NtRp1540
(dp1541
g61
(dp1542
g88
g89
ssg70
g1531
sg63
(lp1543
S':'
asbag56
(g77
g58
NtRp1544
(dp1545
g61
(dp1546
sg70
g1531
sg63
(lp1547
g56
(g57
g58
NtRp1548
(dp1549
g61
(dp1550
g69
I5
ssg70
g1544
sg63
(lp1551
S'welcome/186.32.48.60.2011-06-21.13-56-45.58b72820-de2d-47b2-89a8-a043cca44542'
p1552
asbasbasbag56
(g72
g58
NtRp1553
(dp1554
g61
(dp1555
sg70
g66
sg63
(lp1556
g56
(g77
g58
NtRp1557
(dp1558
g61
(dp1559
g81
g82
ssg70
g1553
sg63
(lp1560
S'vars'
p1561
asbag56
(g77
g58
NtRp1562
(dp1563
g61
(dp1564
g88
g89
ssg70
g1553
sg63
(lp1565
S':'
asbag56
(g77
g58
NtRp1566
(dp1567
g61
(dp1568
sg70
g1553
sg63
(lp1569
g56
(g57
g58
NtRp1570
(dp1571
g61
(dp1572
g69
I5
ssg70
g1566
sg63
(lp1573
g56
(g65
g58
NtRp1574
(dp1575
g61
(dp1576
g69
I4
ssg70
Nsg63
(lp1577
sbasbasbasbag56
(g72
g58
NtRp1578
(dp1579
g61
(dp1580
sg70
g66
sg63
(lp1581
g56
(g77
g58
NtRp1582
(dp1583
g61
(dp1584
g81
g82
ssg70
g1578
sg63
(lp1585
S'wsgi'
p1586
asbag56
(g77
g58
NtRp1587
(dp1588
g61
(dp1589
g88
g89
ssg70
g1578
sg63
(lp1590
S':'
asbag56
(g77
g58
NtRp1591
(dp1592
g61
(dp1593
sg70
g1578
sg63
(lp1594
g56
(g57
g58
NtRp1595
(dp1596
g61
(dp1597
g69
I5
ssg70
g1591
sg63
(lp1598
g56
(g65
g58
NtRp1599
(dp1600
g61
(dp1601
g69
I4
ssg70
Nsg63
(lp1602
g56
(g72
g58
NtRp1603
(dp1604
g61
(dp1605
sg70
g1599
sg63
(lp1606
g56
(g77
g58
NtRp1607
(dp1608
g61
(dp1609
g81
g82
ssg70
g1603
sg63
(lp1610
S'environ'
p1611
asbag56
(g77
g58
NtRp1612
(dp1613
g61
(dp1614
g88
g89
ssg70
g1603
sg63
(lp1615
S':'
asbag56
(g77
g58
NtRp1616
(dp1617
g61
(dp1618
sg70
g1603
sg63
(lp1619
g56
(g57
g58
NtRp1620
(dp1621
g61
(dp1622
g69
I4
ssg70
g1616
sg63
(lp1623
g56
(g65
g58
NtRp1624
(dp1625
g61
(dp1626
g69
I3
ssg70
Nsg63
(lp1627
g56
(g72
g58
NtRp1628
(dp1629
g61
(dp1630
sg70
g1624
sg63
(lp1631
g56
(g77
g58
NtRp1632
(dp1633
g61
(dp1634
g81
g82
ssg70
g1628
sg63
(lp1635
S'CONTENT_LENGTH'
p1636
asbag56
(g77
g58
NtRp1637
(dp1638
g61
(dp1639
g88
g89
ssg70
g1628
sg63
(lp1640
S':'
asbag56
(g77
g58
NtRp1641
(dp1642
g61
(dp1643
sg70
g1628
sg63
(lp1644
g56
(g57
g58
NtRp1645
(dp1646
g61
(dp1647
g69
I3
ssg70
g1641
sg63
(lp1648
S''
asbasbasbag56
(g72
g58
NtRp1649
(dp1650
g61
(dp1651
sg70
g1624
sg63
(lp1652
g56
(g77
g58
NtRp1653
(dp1654
g61
(dp1655
g81
g82
ssg70
g1649
sg63
(lp1656
S'CONTENT_TYPE'
p1657
asbag56
(g77
g58
NtRp1658
(dp1659
g61
(dp1660
g88
g89
ssg70
g1649
sg63
(lp1661
S':'
asbag56
(g77
g58
NtRp1662
(dp1663
g61
(dp1664
sg70
g1649
sg63
(lp1665
g56
(g57
g58
NtRp1666
(dp1667
g61
(dp1668
g69
I3
ssg70
g1662
sg63
(lp1669
S''
asbasbasbag56
(g72
g58
NtRp1670
(dp1671
g61
(dp1672
sg70
g1624
sg63
(lp1673
g56
(g77
g58
NtRp1674
(dp1675
g61
(dp1676
g81
g82
ssg70
g1670
sg63
(lp1677
S'DOCUMENT_ROOT'
p1678
asbag56
(g77
g58
NtRp1679
(dp1680
g61
(dp1681
g88
g89
ssg70
g1670
sg63
(lp1682
S':'
asbag56
(g77
g58
NtRp1683
(dp1684
g61
(dp1685
sg70
g1670
sg63
(lp1686
g56
(g57
g58
NtRp1687
(dp1688
g61
(dp1689
g69
I3
ssg70
g1683
sg63
(lp1690
g605
asbasbasbag56
(g72
g58
NtRp1691
(dp1692
g61
(dp1693
sg70
g1624
sg63
(lp1694
g56
(g77
g58
NtRp1695
(dp1696
g61
(dp1697
g81
g82
ssg70
g1691
sg63
(lp1698
S'HTTP_ACCEPT'
p1699
asbag56
(g77
g58
NtRp1700
(dp1701
g61
(dp1702
g88
g89
ssg70
g1691
sg63
(lp1703
S':'
asbag56
(g77
g58
NtRp1704
(dp1705
g61
(dp1706
sg70
g1691
sg63
(lp1707
g56
(g57
g58
NtRp1708
(dp1709
g61
(dp1710
g69
I3
ssg70
g1704
sg63
(lp1711
g648
asbasbasbag56
(g72
g58
NtRp1712
(dp1713
g61
(dp1714
sg70
g1624
sg63
(lp1715
g56
(g77
g58
NtRp1716
(dp1717
g61
(dp1718
g81
g82
ssg70
g1712
sg63
(lp1719
S'HTTP_ACCEPT_CHARSET'
p1720
asbag56
(g77
g58
NtRp1721
(dp1722
g61
(dp1723
g88
g89
ssg70
g1712
sg63
(lp1724
S':'
asbag56
(g77
g58
NtRp1725
(dp1726
g61
(dp1727
sg70
g1712
sg63
(lp1728
g56
(g57
g58
NtRp1729
(dp1730
g61
(dp1731
g69
I3
ssg70
g1725
sg63
(lp1732
g670
asbasbasbag56
(g72
g58
NtRp1733
(dp1734
g61
(dp1735
sg70
g1624
sg63
(lp1736
g56
(g77
g58
NtRp1737
(dp1738
g61
(dp1739
g81
g82
ssg70
g1733
sg63
(lp1740
S'HTTP_ACCEPT_ENCODING'
p1741
asbag56
(g77
g58
NtRp1742
(dp1743
g61
(dp1744
g88
g89
ssg70
g1733
sg63
(lp1745
S':'
asbag56
(g77
g58
NtRp1746
(dp1747
g61
(dp1748
sg70
g1733
sg63
(lp1749
g56
(g57
g58
NtRp1750
(dp1751
g61
(dp1752
g69
I3
ssg70
g1746
sg63
(lp1753
g692
asbasbasbag56
(g72
g58
NtRp1754
(dp1755
g61
(dp1756
sg70
g1624
sg63
(lp1757
g56
(g77
g58
NtRp1758
(dp1759
g61
(dp1760
g81
g82
ssg70
g1754
sg63
(lp1761
S'HTTP_ACCEPT_LANGUAGE'
p1762
asbag56
(g77
g58
NtRp1763
(dp1764
g61
(dp1765
g88
g89
ssg70
g1754
sg63
(lp1766
S':'
asbag56
(g77
g58
NtRp1767
(dp1768
g61
(dp1769
sg70
g1754
sg63
(lp1770
g56
(g57
g58
NtRp1771
(dp1772
g61
(dp1773
g69
I3
ssg70
g1767
sg63
(lp1774
g714
asbasbasbag56
(g72
g58
NtRp1775
(dp1776
g61
(dp1777
sg70
g1624
sg63
(lp1778
g56
(g77
g58
NtRp1779
(dp1780
g61
(dp1781
g81
g82
ssg70
g1775
sg63
(lp1782
S'HTTP_CONNECTION'
p1783
asbag56
(g77
g58
NtRp1784
(dp1785
g61
(dp1786
g88
g89
ssg70
g1775
sg63
(lp1787
S':'
asbag56
(g77
g58
NtRp1788
(dp1789
g61
(dp1790
sg70
g1775
sg63
(lp1791
g56
(g57
g58
NtRp1792
(dp1793
g61
(dp1794
g69
I3
ssg70
g1788
sg63
(lp1795
g736
asbasbasbag56
(g72
g58
NtRp1796
(dp1797
g61
(dp1798
sg70
g1624
sg63
(lp1799
g56
(g77
g58
NtRp1800
(dp1801
g61
(dp1802
g81
g82
ssg70
g1796
sg63
(lp1803
S'HTTP_COOKIE'
p1804
asbag56
(g77
g58
NtRp1805
(dp1806
g61
(dp1807
g88
g89
ssg70
g1796
sg63
(lp1808
S':'
asbag56
(g77
g58
NtRp1809
(dp1810
g61
(dp1811
sg70
g1796
sg63
(lp1812
g56
(g57
g58
NtRp1813
(dp1814
g61
(dp1815
g69
I3
ssg70
g1809
sg63
(lp1816
g758
asbasbasbag56
(g72
g58
NtRp1817
(dp1818
g61
(dp1819
sg70
g1624
sg63
(lp1820
g56
(g77
g58
NtRp1821
(dp1822
g61
(dp1823
g81
g82
ssg70
g1817
sg63
(lp1824
S'HTTP_HOST'
p1825
asbag56
(g77
g58
NtRp1826
(dp1827
g61
(dp1828
g88
g89
ssg70
g1817
sg63
(lp1829
S':'
asbag56
(g77
g58
NtRp1830
(dp1831
g61
(dp1832
sg70
g1817
sg63
(lp1833
g56
(g57
g58
NtRp1834
(dp1835
g61
(dp1836
g69
I3
ssg70
g1830
sg63
(lp1837
g780
asbasbasbag56
(g72
g58
NtRp1838
(dp1839
g61
(dp1840
sg70
g1624
sg63
(lp1841
g56
(g77
g58
NtRp1842
(dp1843
g61
(dp1844
g81
g82
ssg70
g1838
sg63
(lp1845
S'HTTP_KEEP_ALIVE'
p1846
asbag56
(g77
g58
NtRp1847
(dp1848
g61
(dp1849
g88
g89
ssg70
g1838
sg63
(lp1850
S':'
asbag56
(g77
g58
NtRp1851
(dp1852
g61
(dp1853
sg70
g1838
sg63
(lp1854
g56
(g57
g58
NtRp1855
(dp1856
g61
(dp1857
g69
I3
ssg70
g1851
sg63
(lp1858
g802
asbasbasbag56
(g72
g58
NtRp1859
(dp1860
g61
(dp1861
sg70
g1624
sg63
(lp1862
g56
(g77
g58
NtRp1863
(dp1864
g61
(dp1865
g81
g82
ssg70
g1859
sg63
(lp1866
S'HTTP_USER_AGENT'
p1867
asbag56
(g77
g58
NtRp1868
(dp1869
g61
(dp1870
g88
g89
ssg70
g1859
sg63
(lp1871
S':'
asbag56
(g77
g58
NtRp1872
(dp1873
g61
(dp1874
sg70
g1859
sg63
(lp1875
g56
(g57
g58
NtRp1876
(dp1877
g61
(dp1878
g69
I3
ssg70
g1872
sg63
(lp1879
g824
asbasbasbag56
(g72
g58
NtRp1880
(dp1881
g61
(dp1882
sg70
g1624
sg63
(lp1883
g56
(g77
g58
NtRp1884
(dp1885
g61
(dp1886
g81
g82
ssg70
g1880
sg63
(lp1887
S'PATH_INFO'
p1888
asbag56
(g77
g58
NtRp1889
(dp1890
g61
(dp1891
g88
g89
ssg70
g1880
sg63
(lp1892
S':'
asbag56
(g77
g58
NtRp1893
(dp1894
g61
(dp1895
sg70
g1880
sg63
(lp1896
g56
(g57
g58
NtRp1897
(dp1898
g61
(dp1899
g69
I3
ssg70
g1893
sg63
(lp1900
g846
asbasbasbag56
(g72
g58
NtRp1901
(dp1902
g61
(dp1903
sg70
g1624
sg63
(lp1904
g56
(g77
g58
NtRp1905
(dp1906
g61
(dp1907
g81
g82
ssg70
g1901
sg63
(lp1908
S'QUERY_STRING'
p1909
asbag56
(g77
g58
NtRp1910
(dp1911
g61
(dp1912
g88
g89
ssg70
g1901
sg63
(lp1913
S':'
asbag56
(g77
g58
NtRp1914
(dp1915
g61
(dp1916
sg70
g1901
sg63
(lp1917
g56
(g57
g58
NtRp1918
(dp1919
g61
(dp1920
g69
I3
ssg70
g1914
sg63
(lp1921
S''
asbasbasbag56
(g72
g58
NtRp1922
(dp1923
g61
(dp1924
sg70
g1624
sg63
(lp1925
g56
(g77
g58
NtRp1926
(dp1927
g61
(dp1928
g81
g82
ssg70
g1922
sg63
(lp1929
S'REMOTE_ADDR'
p1930
asbag56
(g77
g58
NtRp1931
(dp1932
g61
(dp1933
g88
g89
ssg70
g1922
sg63
(lp1934
S':'
asbag56
(g77
g58
NtRp1935
(dp1936
g61
(dp1937
sg70
g1922
sg63
(lp1938
g56
(g57
g58
NtRp1939
(dp1940
g61
(dp1941
g69
I3
ssg70
g1935
sg63
(lp1942
g189
asbasbasbag56
(g72
g58
NtRp1943
(dp1944
g61
(dp1945
sg70
g1624
sg63
(lp1946
g56
(g77
g58
NtRp1947
(dp1948
g61
(dp1949
g81
g82
ssg70
g1943
sg63
(lp1950
S'REMOTE_PORT'
p1951
asbag56
(g77
g58
NtRp1952
(dp1953
g61
(dp1954
g88
g89
ssg70
g1943
sg63
(lp1955
S':'
asbag56
(g77
g58
NtRp1956
(dp1957
g61
(dp1958
sg70
g1943
sg63
(lp1959
g56
(g57
g58
NtRp1960
(dp1961
g61
(dp1962
g69
I3
ssg70
g1956
sg63
(lp1963
g910
asbasbasbag56
(g72
g58
NtRp1964
(dp1965
g61
(dp1966
sg70
g1624
sg63
(lp1967
g56
(g77
g58
NtRp1968
(dp1969
g61
(dp1970
g81
g82
ssg70
g1964
sg63
(lp1971
S'REQUEST_METHOD'
p1972
asbag56
(g77
g58
NtRp1973
(dp1974
g61
(dp1975
g88
g89
ssg70
g1964
sg63
(lp1976
S':'
asbag56
(g77
g58
NtRp1977
(dp1978
g61
(dp1979
sg70
g1964
sg63
(lp1980
g56
(g57
g58
NtRp1981
(dp1982
g61
(dp1983
g69
I3
ssg70
g1977
sg63
(lp1984
g932
asbasbasbag56
(g72
g58
NtRp1985
(dp1986
g61
(dp1987
sg70
g1624
sg63
(lp1988
g56
(g77
g58
NtRp1989
(dp1990
g61
(dp1991
g81
g82
ssg70
g1985
sg63
(lp1992
S'REQUEST_URI'
p1993
asbag56
(g77
g58
NtRp1994
(dp1995
g61
(dp1996
g88
g89
ssg70
g1985
sg63
(lp1997
S':'
asbag56
(g77
g58
NtRp1998
(dp1999
g61
(dp2000
sg70
g1985
sg63
(lp2001
g56
(g57
g58
NtRp2002
(dp2003
g61
(dp2004
g69
I3
ssg70
g1998
sg63
(lp2005
g954
asbasbasbag56
(g72
g58
NtRp2006
(dp2007
g61
(dp2008
sg70
g1624
sg63
(lp2009
g56
(g77
g58
NtRp2010
(dp2011
g61
(dp2012
g81
g82
ssg70
g2006
sg63
(lp2013
S'SERVER_NAME'
p2014
asbag56
(g77
g58
NtRp2015
(dp2016
g61
(dp2017
g88
g89
ssg70
g2006
sg63
(lp2018
S':'
asbag56
(g77
g58
NtRp2019
(dp2020
g61
(dp2021
sg70
g2006
sg63
(lp2022
g56
(g57
g58
NtRp2023
(dp2024
g61
(dp2025
g69
I3
ssg70
g2019
sg63
(lp2026
g976
asbasbasbag56
(g72
g58
NtRp2027
(dp2028
g61
(dp2029
sg70
g1624
sg63
(lp2030
g56
(g77
g58
NtRp2031
(dp2032
g61
(dp2033
g81
g82
ssg70
g2027
sg63
(lp2034
S'SERVER_PORT'
p2035
asbag56
(g77
g58
NtRp2036
(dp2037
g61
(dp2038
g88
g89
ssg70
g2027
sg63
(lp2039
S':'
asbag56
(g77
g58
NtRp2040
(dp2041
g61
(dp2042
sg70
g2027
sg63
(lp2043
g56
(g57
g58
NtRp2044
(dp2045
g61
(dp2046
g69
I3
ssg70
g2040
sg63
(lp2047
g998
asbasbasbag56
(g72
g58
NtRp2048
(dp2049
g61
(dp2050
sg70
g1624
sg63
(lp2051
g56
(g77
g58
NtRp2052
(dp2053
g61
(dp2054
g81
g82
ssg70
g2048
sg63
(lp2055
S'SERVER_PROTOCOL'
p2056
asbag56
(g77
g58
NtRp2057
(dp2058
g61
(dp2059
g88
g89
ssg70
g2048
sg63
(lp2060
S':'
asbag56
(g77
g58
NtRp2061
(dp2062
g61
(dp2063
sg70
g2048
sg63
(lp2064
g56
(g57
g58
NtRp2065
(dp2066
g61
(dp2067
g69
I3
ssg70
g2061
sg63
(lp2068
g1020
asbasbasbag56
(g72
g58
NtRp2069
(dp2070
g61
(dp2071
sg70
g1624
sg63
(lp2072
g56
(g77
g58
NtRp2073
(dp2074
g61
(dp2075
g81
g82
ssg70
g2069
sg63
(lp2076
S'UWSGI_SCHEME'
p2077
asbag56
(g77
g58
NtRp2078
(dp2079
g61
(dp2080
g88
g89
ssg70
g2069
sg63
(lp2081
S':'
asbag56
(g77
g58
NtRp2082
(dp2083
g61
(dp2084
sg70
g2069
sg63
(lp2085
g56
(g57
g58
NtRp2086
(dp2087
g61
(dp2088
g69
I3
ssg70
g2082
sg63
(lp2089
g1042
asbasbasbag56
(g72
g58
NtRp2090
(dp2091
g61
(dp2092
sg70
g1624
sg63
(lp2093
g56
(g77
g58
NtRp2094
(dp2095
g61
(dp2096
g81
g82
ssg70
g2090
sg63
(lp2097
S'uwsgi.version'
p2098
asbag56
(g77
g58
NtRp2099
(dp2100
g61
(dp2101
g88
g89
ssg70
g2090
sg63
(lp2102
S':'
asbag56
(g77
g58
NtRp2103
(dp2104
g61
(dp2105
sg70
g2090
sg63
(lp2106
g56
(g57
g58
NtRp2107
(dp2108
g61
(dp2109
g69
I3
ssg70
g2103
sg63
(lp2110
g1064
asbasbasbag56
(g72
g58
NtRp2111
(dp2112
g61
(dp2113
sg70
g1624
sg63
(lp2114
g56
(g77
g58
NtRp2115
(dp2116
g61
(dp2117
g81
g82
ssg70
g2111
sg63
(lp2118
S'wsgi.errors'
p2119
asbag56
(g77
g58
NtRp2120
(dp2121
g61
(dp2122
g88
g89
ssg70
g2111
sg63
(lp2123
S':'
asbag56
(g77
g58
NtRp2124
(dp2125
g61
(dp2126
sg70
g2111
sg63
(lp2127
g56
(g57
g58
NtRp2128
(dp2129
g61
(dp2130
g69
I3
ssg70
g2124
sg63
(lp2131
S"<open file 'wsgi_input', mode 'w' at 0x9110288>"
p2132
asbasbasbag56
(g72
g58
NtRp2133
(dp2134
g61
(dp2135
sg70
g1624
sg63
(lp2136
g56
(g77
g58
NtRp2137
(dp2138
g61
(dp2139
g81
g82
ssg70
g2133
sg63
(lp2140
S'wsgi.file_wrapper'
p2141
asbag56
(g77
g58
NtRp2142
(dp2143
g61
(dp2144
g88
g89
ssg70
g2133
sg63
(lp2145
S':'
asbag56
(g77
g58
NtRp2146
(dp2147
g61
(dp2148
sg70
g2133
sg63
(lp2149
g56
(g57
g58
NtRp2150
(dp2151
g61
(dp2152
g69
I3
ssg70
g2146
sg63
(lp2153
S'<built-in function uwsgi_sendfile>'
p2154
asbasbasbag56
(g72
g58
NtRp2155
(dp2156
g61
(dp2157
sg70
g1624
sg63
(lp2158
g56
(g77
g58
NtRp2159
(dp2160
g61
(dp2161
g81
g82
ssg70
g2155
sg63
(lp2162
S'wsgi.input'
p2163
asbag56
(g77
g58
NtRp2164
(dp2165
g61
(dp2166
g88
g89
ssg70
g2155
sg63
(lp2167
S':'
asbag56
(g77
g58
NtRp2168
(dp2169
g61
(dp2170
sg70
g2155
sg63
(lp2171
g56
(g57
g58
NtRp2172
(dp2173
g61
(dp2174
g69
I3
ssg70
g2168
sg63
(lp2175
S'<cStringIO.StringO object at 0x8e4ad20>'
p2176
asbasbasbag56
(g72
g58
NtRp2177
(dp2178
g61
(dp2179
sg70
g1624
sg63
(lp2180
g56
(g77
g58
NtRp2181
(dp2182
g61
(dp2183
g81
g82
ssg70
g2177
sg63
(lp2184
S'wsgi.multiprocess'
p2185
asbag56
(g77
g58
NtRp2186
(dp2187
g61
(dp2188
g88
g89
ssg70
g2177
sg63
(lp2189
S':'
asbag56
(g77
g58
NtRp2190
(dp2191
g61
(dp2192
sg70
g2177
sg63
(lp2193
g56
(g57
g58
NtRp2194
(dp2195
g61
(dp2196
g69
I3
ssg70
g2190
sg63
(lp2197
g99
asbasbasbag56
(g72
g58
NtRp2198
(dp2199
g61
(dp2200
sg70
g1624
sg63
(lp2201
g56
(g77
g58
NtRp2202
(dp2203
g61
(dp2204
g81
g82
ssg70
g2198
sg63
(lp2205
S'wsgi.multithread'
p2206
asbag56
(g77
g58
NtRp2207
(dp2208
g61
(dp2209
g88
g89
ssg70
g2198
sg63
(lp2210
S':'
asbag56
(g77
g58
NtRp2211
(dp2212
g61
(dp2213
sg70
g2198
sg63
(lp2214
g56
(g57
g58
NtRp2215
(dp2216
g61
(dp2217
g69
I3
ssg70
g2211
sg63
(lp2218
g99
asbasbasbag56
(g72
g58
NtRp2219
(dp2220
g61
(dp2221
sg70
g1624
sg63
(lp2222
g56
(g77
g58
NtRp2223
(dp2224
g61
(dp2225
g81
g82
ssg70
g2219
sg63
(lp2226
S'wsgi.run_once'
p2227
asbag56
(g77
g58
NtRp2228
(dp2229
g61
(dp2230
g88
g89
ssg70
g2219
sg63
(lp2231
S':'
asbag56
(g77
g58
NtRp2232
(dp2233
g61
(dp2234
sg70
g2219
sg63
(lp2235
g56
(g57
g58
NtRp2236
(dp2237
g61
(dp2238
g69
I3
ssg70
g2232
sg63
(lp2239
g99
asbasbasbag56
(g72
g58
NtRp2240
(dp2241
g61
(dp2242
sg70
g1624
sg63
(lp2243
g56
(g77
g58
NtRp2244
(dp2245
g61
(dp2246
g81
g82
ssg70
g2240
sg63
(lp2247
S'wsgi.url_scheme'
p2248
asbag56
(g77
g58
NtRp2249
(dp2250
g61
(dp2251
g88
g89
ssg70
g2240
sg63
(lp2252
S':'
asbag56
(g77
g58
NtRp2253
(dp2254
g61
(dp2255
sg70
g2240
sg63
(lp2256
g56
(g57
g58
NtRp2257
(dp2258
g61
(dp2259
g69
I3
ssg70
g2253
sg63
(lp2260
g1258
asbasbasbag56
(g72
g58
NtRp2261
(dp2262
g61
(dp2263
sg70
g1624
sg63
(lp2264
g56
(g77
g58
NtRp2265
(dp2266
g61
(dp2267
g81
g82
ssg70
g2261
sg63
(lp2268
S'wsgi.version'
p2269
asbag56
(g77
g58
NtRp2270
(dp2271
g61
(dp2272
g88
g89
ssg70
g2261
sg63
(lp2273
S':'
asbag56
(g77
g58
NtRp2274
(dp2275
g61
(dp2276
sg70
g2261
sg63
(lp2277
g56
(g57
g58
NtRp2278
(dp2279
g61
(dp2280
g69
I3
ssg70
g2274
sg63
(lp2281
S'1'
asbasbasbasbasbasbasbasbasbasbasbasbasbsS'frames'
p2282
(lp2283
(dp2284
S'file'
p2285
S'/home/arvin/web2py/gluon/restricted.py'
p2286
sS'dump'
p2287
(dp2288
S'environment'
p2289
S"{'A': <class 'gluon.html.A'>, 'B': <class 'gluon.html.B'>, 'BEAUTIFY': <class 'gluon.html.BEAUTIFY'>, 'BODY': <class 'gluon.html.BODY'>, 'BR': <class 'gluon.html.BR'>, 'BUTTON': <class 'gluon.html.BUTTON'>, 'CENTER': <class 'gluon.html.CENTER'>, 'CLEANUP': <class 'gluon.validators.CLEANUP'>, 'CODE': <class 'gluon.html.CODE'>, 'CRYPT': <class 'gluon.validators.CRYPT'>, ...}"
p2290
sS'ccode'
p2291
S'<code object <module> at 0x89fae78, file "/home/...eb2py/applications/welcome/models/db.py", line 8>'
p2292
ssS'lnum'
p2293
I192
sS'lines'
p2294
(dp2295
I192
S'        exec ccode in environment'
p2296
sI193
S'    except HTTP:'
p2297
sI194
S'        raise'
p2298
sI195
S'    except Exception:'
p2299
sI196
S'        # XXX Show exception in Wing IDE if running in debugger'
p2300
sI187
S'    try:'
p2301
sI188
S'        if type(code) == types.CodeType:'
p2302
sI189
S'            ccode = code'
p2303
sI190
S'        else:'
p2304
sI191
S'            ccode = compile2(code,layer)'
p2305
ssS'call'
p2306
S"(code='# -*- coding: utf-8 -*-\\n# this file is released ...################################################\\n', environment={'A': <class 'gluon.html.A'>, 'B': <class 'gluon.html.B'>, 'BEAUTIFY': <class 'gluon.html.BEAUTIFY'>, 'BODY': <class 'gluon.html.BODY'>, 'BR': <class 'gluon.html.BR'>, 'BUTTON': <class 'gluon.html.BUTTON'>, 'CENTER': <class 'gluon.html.CENTER'>, 'CLEANUP': <class 'gluon.validators.CLEANUP'>, 'CODE': <class 'gluon.html.CODE'>, 'CRYPT': <class 'gluon.validators.CRYPT'>, ...}, layer='/home/arvin/web2py/applications/welcome/models/db.py')"
p2307
sS'func'
p2308
S'restricted'
p2309
sa(dp2310
g2285
S'/home/arvin/web2py/applications/welcome/models/db.py'
p2311
sg2287
(dp2312
S'DAL'
p2313
S"<class 'gluon.dal.DAL'>"
p2314
sS'db'
p2315
S'undefined'
p2316
ssg2293
I17
sg2294
(dp2317
I12
S'    ### or use the following lines to store sessions in Memcache'
p2318
sI13
S'    # from gluon.contrib.memdb import MEMDB'
p2319
sI14
S'    # from google.appengine.api.memcache import Client'
p2320
sI15
S'    # session.connect(request, response, db = MEMDB(Client()))'
p2321
sI16
S'else:                                         # else use a normal relational database'
p2322
sI17
S"    db = DAL('mysql://root:zaq12wsx@localhost/arvin_web2py')       # if not, use SQLite or other DB"
p2323
sI18
S"              #'sqlite://storage.sqlite'"
p2324
sI19
S'# by default give a view/generic.extension to all actions from localhost'
p2325
sI20
S"# none otherwise. a pattern can be 'controller/function.extension'"
p2326
sI21
S"response.generic_patterns = ['*'] if request.is_local else []"
p2327
ssg2306
S'()'
p2328
sg2308
S'<module>'
p2329
sa(dp2330
g2285
S'/home/arvin/web2py/gluon/dal.py'
p2331
sg2287
(dp2332
S'attempts'
p2333
S'5'
sS'builtinRuntimeError'
p2334
S"<type 'exceptions.RuntimeError'>"
p2335
sS'error'
p2336
S'OperationalError(2003, "Can\'t connect to MySQL server on \'localhost\' (111)")'
p2337
ssg2293
I3905
sg2294
(dp2338
I3904
S'            if not connected:'
p2339
sI3905
S'                raise RuntimeError, "Failure to connect, tried %d times:\\n%s" % (attempts, error)'
p2340
sI3906
S'        else:'
p2341
sI3907
S"            args = (self,'None',0,folder,db_codec)"
p2342
sI3908
S'            self._adapter = BaseAdapter(*args)'
p2343
sI3909
S'            migrate = fake_migrate = False'
p2344
sI3900
S'                if connected:'
p2345
sI3901
S'                    break'
p2346
sI3902
S'                else:'
p2347
sI3903
S'                    time.sleep(1)'
p2348
ssg2306
S"(self=<DAL {'_lastsql': '', '_db_codec': 'UTF-8', '_ti..._web2py', '_pool_size': 0, '_common_fields': []}>, uri='mysql://root:zaq12wsx@localhost/arvin_web2py', pool_size=0, folder=None, db_codec='UTF-8', check_reserved=None, migrate=True, fake_migrate=False, migrate_enabled=True, fake_migrate_all=False, decode_credentials=False, driver_args=None, adapter_args={}, attempts=5, auto_import=False)"
p2349
sg2308
g49
sasS'pyver'
p2350
S'Python 2.7.1+: '
p2351
sS'session'
p2352
g56
(g57
g58
NtRp2353
(dp2354
g61
(dp2355
sg63
(lp2356
g56
(g65
g58
NtRp2357
(dp2358
g61
(dp2359
g69
I5
ssg70
Nsg63
(lp2360
sbasbsS'etype'
p2361
S"<type 'exceptions.RuntimeError'>"
p2362
sS'date'
p2363
S'Tue Jun 21 13:56:50 2011'
p2364
sS'response'
p2365
g56
(g57
g58
NtRp2366
(dp2367
g61
(dp2368
sg63
(lp2369
g56
(g65
g58
NtRp2370
(dp2371
g61
(dp2372
g69
I5
ssg70
Nsg63
(lp2373
g56
(g72
g58
NtRp2374
(dp2375
g61
(dp2376
sg70
g2370
sg63
(lp2377
g56
(g77
g58
NtRp2378
(dp2379
g61
(dp2380
g81
g82
ssg70
g2374
sg63
(lp2381
g154
asbag56
(g77
g58
NtRp2382
(dp2383
g61
(dp2384
g88
g89
ssg70
g2374
sg63
(lp2385
S':'
asbag56
(g77
g58
NtRp2386
(dp2387
g61
(dp2388
sg70
g2374
sg63
(lp2389
g56
(g57
g58
NtRp2390
(dp2391
g61
(dp2392
g69
I5
ssg70
g2386
sg63
(lp2393
S'<cStringIO.StringO object at 0x87d6ae0>'
p2394
asbasbasbag56
(g72
g58
NtRp2395
(dp2396
g61
(dp2397
sg70
g2370
sg63
(lp2398
g56
(g77
g58
NtRp2399
(dp2400
g61
(dp2401
g81
g82
ssg70
g2395
sg63
(lp2402
g220
asbag56
(g77
g58
NtRp2403
(dp2404
g61
(dp2405
g88
g89
ssg70
g2395
sg63
(lp2406
S':'
asbag56
(g77
g58
NtRp2407
(dp2408
g61
(dp2409
sg70
g2395
sg63
(lp2410
g56
(g57
g58
NtRp2411
(dp2412
g61
(dp2413
g69
I5
ssg70
g2407
sg63
(lp2414
g56
(g65
g58
NtRp2415
(dp2416
g61
(dp2417
g69
I4
ssg70
Nsg63
(lp2418
g56
(g72
g58
NtRp2419
(dp2420
g61
(dp2421
sg70
g2415
sg63
(lp2422
g56
(g77
g58
NtRp2423
(dp2424
g61
(dp2425
g81
g82
ssg70
g2419
sg63
(lp2426
S'session_id_welcome'
p2427
asbag56
(g77
g58
NtRp2428
(dp2429
g61
(dp2430
g88
g89
ssg70
g2419
sg63
(lp2431
S':'
asbag56
(g77
g58
NtRp2432
(dp2433
g61
(dp2434
sg70
g2419
sg63
(lp2435
g56
(g57
g58
NtRp2436
(dp2437
g61
(dp2438
g69
I4
ssg70
g2432
sg63
(lp2439
g56
(g65
g58
NtRp2440
(dp2441
g61
(dp2442
g69
I3
ssg70
Nsg63
(lp2443
g56
(g72
g58
NtRp2444
(dp2445
g61
(dp2446
sg70
g2440
sg63
(lp2447
g56
(g77
g58
NtRp2448
(dp2449
g61
(dp2450
g81
g82
ssg70
g2444
sg63
(lp2451
g270
asbag56
(g77
g58
NtRp2452
(dp2453
g61
(dp2454
g88
g89
ssg70
g2444
sg63
(lp2455
S':'
asbag56
(g77
g58
NtRp2456
(dp2457
g61
(dp2458
sg70
g2444
sg63
(lp2459
g56
(g57
g58
NtRp2460
(dp2461
g61
(dp2462
g69
I3
ssg70
g2456
sg63
(lp2463
S''
asbasbasbag56
(g72
g58
NtRp2464
(dp2465
g61
(dp2466
sg70
g2440
sg63
(lp2467
g56
(g77
g58
NtRp2468
(dp2469
g61
(dp2470
g81
g82
ssg70
g2464
sg63
(lp2471
g291
asbag56
(g77
g58
NtRp2472
(dp2473
g61
(dp2474
g88
g89
ssg70
g2464
sg63
(lp2475
S':'
asbag56
(g77
g58
NtRp2476
(dp2477
g61
(dp2478
sg70
g2464
sg63
(lp2479
g56
(g57
g58
NtRp2480
(dp2481
g61
(dp2482
g69
I3
ssg70
g2476
sg63
(lp2483
S''
asbasbasbag56
(g72
g58
NtRp2484
(dp2485
g61
(dp2486
sg70
g2440
sg63
(lp2487
g56
(g77
g58
NtRp2488
(dp2489
g61
(dp2490
g81
g82
ssg70
g2484
sg63
(lp2491
g312
asbag56
(g77
g58
NtRp2492
(dp2493
g61
(dp2494
g88
g89
ssg70
g2484
sg63
(lp2495
S':'
asbag56
(g77
g58
NtRp2496
(dp2497
g61
(dp2498
sg70
g2484
sg63
(lp2499
g56
(g57
g58
NtRp2500
(dp2501
g61
(dp2502
g69
I3
ssg70
g2496
sg63
(lp2503
S''
asbasbasbag56
(g72
g58
NtRp2504
(dp2505
g61
(dp2506
sg70
g2440
sg63
(lp2507
g56
(g77
g58
NtRp2508
(dp2509
g61
(dp2510
g81
g82
ssg70
g2504
sg63
(lp2511
g333
asbag56
(g77
g58
NtRp2512
(dp2513
g61
(dp2514
g88
g89
ssg70
g2504
sg63
(lp2515
S':'
asbag56
(g77
g58
NtRp2516
(dp2517
g61
(dp2518
sg70
g2504
sg63
(lp2519
g56
(g57
g58
NtRp2520
(dp2521
g61
(dp2522
g69
I3
ssg70
g2516
sg63
(lp2523
S''
asbasbasbag56
(g72
g58
NtRp2524
(dp2525
g61
(dp2526
sg70
g2440
sg63
(lp2527
g56
(g77
g58
NtRp2528
(dp2529
g61
(dp2530
g81
g82
ssg70
g2524
sg63
(lp2531
g354
asbag56
(g77
g58
NtRp2532
(dp2533
g61
(dp2534
g88
g89
ssg70
g2524
sg63
(lp2535
S':'
asbag56
(g77
g58
NtRp2536
(dp2537
g61
(dp2538
sg70
g2524
sg63
(lp2539
g56
(g57
g58
NtRp2540
(dp2541
g61
(dp2542
g69
I3
ssg70
g2536
sg63
(lp2543
S''
asbasbasbag56
(g72
g58
NtRp2544
(dp2545
g61
(dp2546
sg70
g2440
sg63
(lp2547
g56
(g77
g58
NtRp2548
(dp2549
g61
(dp2550
g81
g82
ssg70
g2544
sg63
(lp2551
g375
asbag56
(g77
g58
NtRp2552
(dp2553
g61
(dp2554
g88
g89
ssg70
g2544
sg63
(lp2555
S':'
asbag56
(g77
g58
NtRp2556
(dp2557
g61
(dp2558
sg70
g2544
sg63
(lp2559
g56
(g57
g58
NtRp2560
(dp2561
g61
(dp2562
g69
I3
ssg70
g2556
sg63
(lp2563
S'/'
asbasbasbag56
(g72
g58
NtRp2564
(dp2565
g61
(dp2566
sg70
g2440
sg63
(lp2567
g56
(g77
g58
NtRp2568
(dp2569
g61
(dp2570
g81
g82
ssg70
g2564
sg63
(lp2571
g396
asbag56
(g77
g58
NtRp2572
(dp2573
g61
(dp2574
g88
g89
ssg70
g2564
sg63
(lp2575
S':'
asbag56
(g77
g58
NtRp2576
(dp2577
g61
(dp2578
sg70
g2564
sg63
(lp2579
g56
(g57
g58
NtRp2580
(dp2581
g61
(dp2582
g69
I3
ssg70
g2576
sg63
(lp2583
S''
asbasbasbag56
(g72
g58
NtRp2584
(dp2585
g61
(dp2586
sg70
g2440
sg63
(lp2587
g56
(g77
g58
NtRp2588
(dp2589
g61
(dp2590
g81
g82
ssg70
g2584
sg63
(lp2591
g417
asbag56
(g77
g58
NtRp2592
(dp2593
g61
(dp2594
g88
g89
ssg70
g2584
sg63
(lp2595
S':'
asbag56
(g77
g58
NtRp2596
(dp2597
g61
(dp2598
sg70
g2584
sg63
(lp2599
g56
(g57
g58
NtRp2600
(dp2601
g61
(dp2602
g69
I3
ssg70
g2596
sg63
(lp2603
S''
asbasbasbasbasbasbasbasbasbasbasbag56
(g72
g58
NtRp2604
(dp2605
g61
(dp2606
sg70
g2370
sg63
(lp2607
g56
(g77
g58
NtRp2608
(dp2609
g61
(dp2610
g81
g82
ssg70
g2604
sg63
(lp2611
S'files'
p2612
asbag56
(g77
g58
NtRp2613
(dp2614
g61
(dp2615
g88
g89
ssg70
g2604
sg63
(lp2616
S':'
asbag56
(g77
g58
NtRp2617
(dp2618
g61
(dp2619
sg70
g2604
sg63
(lp2620
g56
(g57
g58
NtRp2621
(dp2622
g61
(dp2623
g69
I5
ssg70
g2617
sg63
(lp2624
g56
(g65
g58
NtRp2625
(dp2626
g61
(dp2627
g69
I4
ssg70
Nsg63
(lp2628
sbasbasbasbag56
(g72
g58
NtRp2629
(dp2630
g61
(dp2631
sg70
g2370
sg63
(lp2632
g56
(g77
g58
NtRp2633
(dp2634
g61
(dp2635
g81
g82
ssg70
g2629
sg63
(lp2636
S'flash'
p2637
asbag56
(g77
g58
NtRp2638
(dp2639
g61
(dp2640
g88
g89
ssg70
g2629
sg63
(lp2641
S':'
asbag56
(g77
g58
NtRp2642
(dp2643
g61
(dp2644
sg70
g2629
sg63
(lp2645
g56
(g57
g58
NtRp2646
(dp2647
g61
(dp2648
g69
I5
ssg70
g2642
sg63
(lp2649
S''
asbasbasbag56
(g72
g58
NtRp2650
(dp2651
g61
(dp2652
sg70
g2370
sg63
(lp2653
g56
(g77
g58
NtRp2654
(dp2655
g61
(dp2656
g81
g82
ssg70
g2650
sg63
(lp2657
S'headers'
p2658
asbag56
(g77
g58
NtRp2659
(dp2660
g61
(dp2661
g88
g89
ssg70
g2650
sg63
(lp2662
S':'
asbag56
(g77
g58
NtRp2663
(dp2664
g61
(dp2665
sg70
g2650
sg63
(lp2666
g56
(g57
g58
NtRp2667
(dp2668
g61
(dp2669
g69
I5
ssg70
g2663
sg63
(lp2670
g56
(g65
g58
NtRp2671
(dp2672
g61
(dp2673
g69
I4
ssg70
Nsg63
(lp2674
g56
(g72
g58
NtRp2675
(dp2676
g61
(dp2677
sg70
g2671
sg63
(lp2678
g56
(g77
g58
NtRp2679
(dp2680
g61
(dp2681
g81
g82
ssg70
g2675
sg63
(lp2682
S'Cache-Control'
p2683
asbag56
(g77
g58
NtRp2684
(dp2685
g61
(dp2686
g88
g89
ssg70
g2675
sg63
(lp2687
S':'
asbag56
(g77
g58
NtRp2688
(dp2689
g61
(dp2690
sg70
g2675
sg63
(lp2691
g56
(g57
g58
NtRp2692
(dp2693
g61
(dp2694
g69
I4
ssg70
g2688
sg63
(lp2695
S'no-store, no-cache, must-revalidate, post-check=0, pre-check=0'
p2696
asbasbasbag56
(g72
g58
NtRp2697
(dp2698
g61
(dp2699
sg70
g2671
sg63
(lp2700
g56
(g77
g58
NtRp2701
(dp2702
g61
(dp2703
g81
g82
ssg70
g2697
sg63
(lp2704
S'Content-Type'
p2705
asbag56
(g77
g58
NtRp2706
(dp2707
g61
(dp2708
g88
g89
ssg70
g2697
sg63
(lp2709
S':'
asbag56
(g77
g58
NtRp2710
(dp2711
g61
(dp2712
sg70
g2697
sg63
(lp2713
g56
(g57
g58
NtRp2714
(dp2715
g61
(dp2716
g69
I4
ssg70
g2710
sg63
(lp2717
S'text/html; charset=utf-8'
p2718
asbasbasbag56
(g72
g58
NtRp2719
(dp2720
g61
(dp2721
sg70
g2671
sg63
(lp2722
g56
(g77
g58
NtRp2723
(dp2724
g61
(dp2725
g81
g82
ssg70
g2719
sg63
(lp2726
S'Expires'
p2727
asbag56
(g77
g58
NtRp2728
(dp2729
g61
(dp2730
g88
g89
ssg70
g2719
sg63
(lp2731
S':'
asbag56
(g77
g58
NtRp2732
(dp2733
g61
(dp2734
sg70
g2719
sg63
(lp2735
g56
(g57
g58
NtRp2736
(dp2737
g61
(dp2738
g69
I4
ssg70
g2732
sg63
(lp2739
S'Tue, 21 Jun 2011 19:56:45 GMT'
p2740
asbasbasbag56
(g72
g58
NtRp2741
(dp2742
g61
(dp2743
sg70
g2671
sg63
(lp2744
g56
(g77
g58
NtRp2745
(dp2746
g61
(dp2747
g81
g82
ssg70
g2741
sg63
(lp2748
S'Pragma'
p2749
asbag56
(g77
g58
NtRp2750
(dp2751
g61
(dp2752
g88
g89
ssg70
g2741
sg63
(lp2753
S':'
asbag56
(g77
g58
NtRp2754
(dp2755
g61
(dp2756
sg70
g2741
sg63
(lp2757
g56
(g57
g58
NtRp2758
(dp2759
g61
(dp2760
g69
I4
ssg70
g2754
sg63
(lp2761
S'no-cache'
p2762
asbasbasbag56
(g72
g58
NtRp2763
(dp2764
g61
(dp2765
sg70
g2671
sg63
(lp2766
g56
(g77
g58
NtRp2767
(dp2768
g61
(dp2769
g81
g82
ssg70
g2763
sg63
(lp2770
S'X-Powered-By'
p2771
asbag56
(g77
g58
NtRp2772
(dp2773
g61
(dp2774
g88
g89
ssg70
g2763
sg63
(lp2775
S':'
asbag56
(g77
g58
NtRp2776
(dp2777
g61
(dp2778
sg70
g2763
sg63
(lp2779
g56
(g57
g58
NtRp2780
(dp2781
g61
(dp2782
g69
I4
ssg70
g2776
sg63
(lp2783
S'web2py'
p2784
asbasbasbasbasbasbasbag56
(g72
g58
NtRp2785
(dp2786
g61
(dp2787
sg70
g2370
sg63
(lp2788
g56
(g77
g58
NtRp2789
(dp2790
g61
(dp2791
g81
g82
ssg70
g2785
sg63
(lp2792
S'menu'
p2793
asbag56
(g77
g58
NtRp2794
(dp2795
g61
(dp2796
g88
g89
ssg70
g2785
sg63
(lp2797
S':'
asbag56
(g77
g58
NtRp2798
(dp2799
g61
(dp2800
sg70
g2785
sg63
(lp2801
g56
(g57
g58
NtRp2802
(dp2803
g61
(dp2804
g69
I5
ssg70
g2798
sg63
(lp2805
g56
(g65
g58
NtRp2806
(dp2807
g61
(dp2808
g69
I4
ssg70
Nsg63
(lp2809
sbasbasbasbag56
(g72
g58
NtRp2810
(dp2811
g61
(dp2812
sg70
g2370
sg63
(lp2813
g56
(g77
g58
NtRp2814
(dp2815
g61
(dp2816
g81
g82
ssg70
g2810
sg63
(lp2817
S'meta'
p2818
asbag56
(g77
g58
NtRp2819
(dp2820
g61
(dp2821
g88
g89
ssg70
g2810
sg63
(lp2822
S':'
asbag56
(g77
g58
NtRp2823
(dp2824
g61
(dp2825
sg70
g2810
sg63
(lp2826
g56
(g57
g58
NtRp2827
(dp2828
g61
(dp2829
g69
I5
ssg70
g2823
sg63
(lp2830
g56
(g65
g58
NtRp2831
(dp2832
g61
(dp2833
g69
I4
ssg70
Nsg63
(lp2834
sbasbasbasbag56
(g72
g58
NtRp2835
(dp2836
g61
(dp2837
sg70
g2370
sg63
(lp2838
g56
(g77
g58
NtRp2839
(dp2840
g61
(dp2841
g81
g82
ssg70
g2835
sg63
(lp2842
S'postprocessing'
p2843
asbag56
(g77
g58
NtRp2844
(dp2845
g61
(dp2846
g88
g89
ssg70
g2835
sg63
(lp2847
S':'
asbag56
(g77
g58
NtRp2848
(dp2849
g61
(dp2850
sg70
g2835
sg63
(lp2851
g56
(g57
g58
NtRp2852
(dp2853
g61
(dp2854
g69
I5
ssg70
g2848
sg63
(lp2855
g56
(g65
g58
NtRp2856
(dp2857
g61
(dp2858
g69
I4
ssg70
Nsg63
(lp2859
sbasbasbasbag56
(g72
g58
NtRp2860
(dp2861
g61
(dp2862
sg70
g2370
sg63
(lp2863
g56
(g77
g58
NtRp2864
(dp2865
g61
(dp2866
g81
g82
ssg70
g2860
sg63
(lp2867
S'session_filename'
p2868
asbag56
(g77
g58
NtRp2869
(dp2870
g61
(dp2871
g88
g89
ssg70
g2860
sg63
(lp2872
S':'
asbag56
(g77
g58
NtRp2873
(dp2874
g61
(dp2875
sg70
g2860
sg63
(lp2876
g56
(g57
g58
NtRp2877
(dp2878
g61
(dp2879
g69
I5
ssg70
g2873
sg63
(lp2880
S'/home/arvin/web2py/applications/welcome/sessions/186.32.48.60-e18f1031-ba26-4890-8557-ad095281a884'
p2881
asbasbasbag56
(g72
g58
NtRp2882
(dp2883
g61
(dp2884
sg70
g2370
sg63
(lp2885
g56
(g77
g58
NtRp2886
(dp2887
g61
(dp2888
g81
g82
ssg70
g2882
sg63
(lp2889
S'session_id'
p2890
asbag56
(g77
g58
NtRp2891
(dp2892
g61
(dp2893
g88
g89
ssg70
g2882
sg63
(lp2894
S':'
asbag56
(g77
g58
NtRp2895
(dp2896
g61
(dp2897
sg70
g2882
sg63
(lp2898
g56
(g57
g58
NtRp2899
(dp2900
g61
(dp2901
g69
I5
ssg70
g2895
sg63
(lp2902
S'186.32.48.60-e18f1031-ba26-4890-8557-ad095281a884'
p2903
asbasbasbag56
(g72
g58
NtRp2904
(dp2905
g61
(dp2906
sg70
g2370
sg63
(lp2907
g56
(g77
g58
NtRp2908
(dp2909
g61
(dp2910
g81
g82
ssg70
g2904
sg63
(lp2911
S'session_id_name'
p2912
asbag56
(g77
g58
NtRp2913
(dp2914
g61
(dp2915
g88
g89
ssg70
g2904
sg63
(lp2916
S':'
asbag56
(g77
g58
NtRp2917
(dp2918
g61
(dp2919
sg70
g2904
sg63
(lp2920
g56
(g57
g58
NtRp2921
(dp2922
g61
(dp2923
g69
I5
ssg70
g2917
sg63
(lp2924
g2427
asbasbasbag56
(g72
g58
NtRp2925
(dp2926
g61
(dp2927
sg70
g2370
sg63
(lp2928
g56
(g77
g58
NtRp2929
(dp2930
g61
(dp2931
g81
g82
ssg70
g2925
sg63
(lp2932
S'session_new'
p2933
asbag56
(g77
g58
NtRp2934
(dp2935
g61
(dp2936
g88
g89
ssg70
g2925
sg63
(lp2937
S':'
asbag56
(g77
g58
NtRp2938
(dp2939
g61
(dp2940
sg70
g2925
sg63
(lp2941
g56
(g57
g58
NtRp2942
(dp2943
g61
(dp2944
g69
I5
ssg70
g2938
sg63
(lp2945
S'True'
p2946
asbasbasbag56
(g72
g58
NtRp2947
(dp2948
g61
(dp2949
sg70
g2370
sg63
(lp2950
g56
(g77
g58
NtRp2951
(dp2952
g61
(dp2953
g81
g82
ssg70
g2947
sg63
(lp2954
S'status'
p2955
asbag56
(g77
g58
NtRp2956
(dp2957
g61
(dp2958
g88
g89
ssg70
g2947
sg63
(lp2959
S':'
asbag56
(g77
g58
NtRp2960
(dp2961
g61
(dp2962
sg70
g2947
sg63
(lp2963
g56
(g57
g58
NtRp2964
(dp2965
g61
(dp2966
g69
I5
ssg70
g2960
sg63
(lp2967
S'200'
p2968
asbasbasbag56
(g72
g58
NtRp2969
(dp2970
g61
(dp2971
sg70
g2370
sg63
(lp2972
g56
(g77
g58
NtRp2973
(dp2974
g61
(dp2975
g81
g82
ssg70
g2969
sg63
(lp2976
g1539
asbag56
(g77
g58
NtRp2977
(dp2978
g61
(dp2979
g88
g89
ssg70
g2969
sg63
(lp2980
S':'
asbag56
(g77
g58
NtRp2981
(dp2982
g61
(dp2983
sg70
g2969
sg63
(lp2984
g56
(g57
g58
NtRp2985
(dp2986
g61
(dp2987
g69
I5
ssg70
g2981
sg63
(lp2988
g1552
asbasbasbag56
(g72
g58
NtRp2989
(dp2990
g61
(dp2991
sg70
g2370
sg63
(lp2992
g56
(g77
g58
NtRp2993
(dp2994
g61
(dp2995
g81
g82
ssg70
g2989
sg63
(lp2996
S'view'
p2997
asbag56
(g77
g58
NtRp2998
(dp2999
g61
(dp3000
g88
g89
ssg70
g2989
sg63
(lp3001
S':'
asbag56
(g77
g58
NtRp3002
(dp3003
g61
(dp3004
sg70
g2989
sg63
(lp3005
g56
(g57
g58
NtRp3006
(dp3007
g61
(dp3008
g69
I5
ssg70
g3002
sg63
(lp3009
S'default/index.html'
p3010
asbasbasbasbasbsS'locals'
p3011
(dp3012
S'uris'
p3013
S"['mysql://root:zaq12wsx@localhost/arvin_web2py']"
p3014
sg41
S"(<DAL {'_lastsql': '', '_db_codec': 'UTF-8', '_ti..._web2py', '_pool_size': 0, '_common_fields': []}>, 'mysql://root:zaq12wsx@localhost/arvin_web2py', 0, None, 'UTF-8', <function <lambda>>, {'charset': 'utf8', 'db': 'arvin_web2py', 'host': 'localhost', 'passwd': 'zaq12wsx', 'port': 3306, 'user': 'root'}, {})"
p3015
sS'fake_migrate_all'
p3016
g99
sS'migrate'
p3017
g2946
sS'driver_args'
p3018
S'None'
p3019
sS'k'
S'4'
sS'adapter_args'
p3020
g44
sS'auto_import'
p3021
g99
sS'uri'
p3022
S"'mysql://root:zaq12wsx@localhost/arvin_web2py'"
p3023
sS'migrate_enabled'
p3024
g2946
sS'fake_migrate'
p3025
g99
sS'check_reserved'
p3026
S'None'
p3027
sS'attempts'
p3028
S'5'
sS'connected'
p3029
g99
sS'error'
p3030
S'OperationalError(2003, "Can\'t connect to MySQL server on \'localhost\' (111)")'
p3031
sS'pool_size'
p3032
S'0'
sg1338
S'None'
p3033
sS'decode_credentials'
p3034
g99
sS'credential_decoder'
p3035
S'<function <lambda>>'
p3036
sS'self'
p3037
S"<DAL {'_lastsql': '', '_db_codec': 'UTF-8', '_ti..._web2py', '_pool_size': 0, '_common_fields': []}>"
p3038
sS'db_codec'
p3039
S"'UTF-8'"
p3040
sssS'traceback'
p3041
S'Traceback (most recent call last):\n  File "/home/arvin/web2py/gluon/restricted.py", line 192, in restricted\n    exec ccode in environment\n  File "/home/arvin/web2py/applications/welcome/models/db.py", line 17, in <module>\n    db = DAL(\'mysql://root:zaq12wsx@localhost/arvin_web2py\')       # if not, use SQLite or other DB\n  File "/home/arvin/web2py/gluon/dal.py", line 3905, in __init__\n    raise RuntimeError, "Failure to connect, tried %d times:\\n%s" % (attempts, error)\nRuntimeError: Failure to connect, tried 5 times:\n(2003, "Can\'t connect to MySQL server on \'localhost\' (111)")\n'
p3042
s.