(dp1
S'output'
p2
S''
sS'layer'
p3
S'Framework'
p4
sS'code'
p5
S''
sS'snapshot'
p6
(dp7
S'exception'
p8
(dp9
S'__getslice__'
p10
S"<method-wrapper '__getslice__' of exceptions.OSError object>"
p11
sS'__str__'
p12
S"<method-wrapper '__str__' of exceptions.OSError object>"
p13
sS'__reduce__'
p14
S'<built-in method __reduce__ of exceptions.OSError object>'
p15
sS'__dict__'
p16
S'{}'
p17
sS'__sizeof__'
p18
S'<built-in method __sizeof__ of exceptions.OSError object>'
p19
sS'__init__'
p20
S"<method-wrapper '__init__' of exceptions.OSError object>"
p21
sS'__setattr__'
p22
S"<method-wrapper '__setattr__' of exceptions.OSError object>"
p23
sS'__reduce_ex__'
p24
S'<built-in method __reduce_ex__ of exceptions.OSError object>'
p25
sS'__new__'
p26
S'<built-in method __new__ of type object>'
p27
sS'errno'
p28
S'13'
p29
sS'__format__'
p30
S'<built-in method __format__ of exceptions.OSError object>'
p31
sS'__class__'
p32
S"<type 'exceptions.OSError'>"
p33
sS'filename'
p34
S"'/home/arvin/web2py/applications/admin/cache/cache.shelve'"
p35
sS'__doc__'
p36
S"'OS system call failed.'"
p37
sS'__getitem__'
p38
S"<method-wrapper '__getitem__' of exceptions.OSError object>"
p39
sS'__setstate__'
p40
S'<built-in method __setstate__ of exceptions.OSError object>'
p41
sS'__getattribute__'
p42
S"<method-wrapper '__getattribute__' of exceptions.OSError object>"
p43
sS'args'
p44
S"(13, 'Permission denied')"
p45
sS'__subclasshook__'
p46
S'<built-in method __subclasshook__ of type object>'
p47
sS'__unicode__'
p48
S'<built-in method __unicode__ of exceptions.OSError object>'
p49
sS'strerror'
p50
S"'Permission denied'"
p51
sS'__delattr__'
p52
S"<method-wrapper '__delattr__' of exceptions.OSError object>"
p53
sS'__repr__'
p54
S"<method-wrapper '__repr__' of exceptions.OSError object>"
p55
sS'__hash__'
p56
S"<method-wrapper '__hash__' of exceptions.OSError object>"
p57
ssS'evalue'
p58
S"[Errno 13] Permission denied: '/home/arvin/web2py/applications/admin/cache/cache.shelve'"
p59
sS'request'
p60
ccopy_reg
_reconstructor
p61
(cgluon.html
BEAUTIFY
p62
c__builtin__
object
p63
NtRp64
(dp65
S'attributes'
p66
(dp67
sS'components'
p68
(lp69
g61
(cgluon.html
TABLE
p70
g63
NtRp71
(dp72
g66
(dp73
S'level'
p74
I5
ssS'parent'
p75
Nsg68
(lp76
g61
(cgluon.html
TR
p77
g63
NtRp78
(dp79
g66
(dp80
sg75
g71
sg68
(lp81
g61
(cgluon.html
TD
p82
g63
NtRp83
(dp84
g66
(dp85
S'_style'
p86
S'font-weight:bold;'
p87
ssg75
g78
sg68
(lp88
S'ajax'
p89
asbag61
(g82
g63
NtRp90
(dp91
g66
(dp92
S'_valign'
p93
S'top'
p94
ssg75
g78
sg68
(lp95
S':'
asbag61
(g82
g63
NtRp96
(dp97
g66
(dp98
sg75
g78
sg68
(lp99
g61
(g62
g63
NtRp100
(dp101
g66
(dp102
g74
I5
ssg75
g96
sg68
(lp103
S'False'
p104
asbasbasbag61
(g77
g63
NtRp105
(dp106
g66
(dp107
sg75
g71
sg68
(lp108
g61
(g82
g63
NtRp109
(dp110
g66
(dp111
g86
g87
ssg75
g105
sg68
(lp112
S'application'
p113
asbag61
(g82
g63
NtRp114
(dp115
g66
(dp116
g93
g94
ssg75
g105
sg68
(lp117
S':'
asbag61
(g82
g63
NtRp118
(dp119
g66
(dp120
sg75
g105
sg68
(lp121
g61
(g62
g63
NtRp122
(dp123
g66
(dp124
g74
I5
ssg75
g118
sg68
(lp125
S'admin'
p126
asbasbasbag61
(g77
g63
NtRp127
(dp128
g66
(dp129
sg75
g71
sg68
(lp130
g61
(g82
g63
NtRp131
(dp132
g66
(dp133
g86
g87
ssg75
g127
sg68
(lp134
g44
asbag61
(g82
g63
NtRp135
(dp136
g66
(dp137
g93
g94
ssg75
g127
sg68
(lp138
S':'
asbag61
(g82
g63
NtRp139
(dp140
g66
(dp141
sg75
g127
sg68
(lp142
g61
(g62
g63
NtRp143
(dp144
g66
(dp145
g74
I5
ssg75
g139
sg68
(lp146
g61
(g70
g63
NtRp147
(dp148
g66
(dp149
g74
I4
ssg75
Nsg68
(lp150
g61
(g77
g63
NtRp151
(dp152
g66
(dp153
sg75
g147
sg68
(lp154
g61
(g82
g63
NtRp155
(dp156
g66
(dp157
sg75
g151
sg68
(lp158
g61
(g62
g63
NtRp159
(dp160
g66
(dp161
g74
I4
ssg75
g155
sg68
(lp162
S'admin'
p163
asbasbasbag61
(g77
g63
NtRp164
(dp165
g66
(dp166
sg75
g147
sg68
(lp167
g61
(g82
g63
NtRp168
(dp169
g66
(dp170
sg75
g164
sg68
(lp171
g61
(g62
g63
NtRp172
(dp173
g66
(dp174
g74
I4
ssg75
g168
sg68
(lp175
S'186.32.48.60.2011-06-21.14-26-05.2aaeba7d-6008-49dc-a8c6-abb15b81a32d'
p176
asbasbasbasbasbasbasbag61
(g77
g63
NtRp177
(dp178
g66
(dp179
sg75
g71
sg68
(lp180
g61
(g82
g63
NtRp181
(dp182
g66
(dp183
g86
g87
ssg75
g177
sg68
(lp184
S'body'
p185
asbag61
(g82
g63
NtRp186
(dp187
g66
(dp188
g93
g94
ssg75
g177
sg68
(lp189
S':'
asbag61
(g82
g63
NtRp190
(dp191
g66
(dp192
sg75
g177
sg68
(lp193
g61
(g62
g63
NtRp194
(dp195
g66
(dp196
g74
I5
ssg75
g190
sg68
(lp197
S'<cStringIO.StringO object at 0xa68a6a0>'
p198
asbasbasbag61
(g77
g63
NtRp199
(dp200
g66
(dp201
sg75
g71
sg68
(lp202
g61
(g82
g63
NtRp203
(dp204
g66
(dp205
g86
g87
ssg75
g199
sg68
(lp206
S'client'
p207
asbag61
(g82
g63
NtRp208
(dp209
g66
(dp210
g93
g94
ssg75
g199
sg68
(lp211
S':'
asbag61
(g82
g63
NtRp212
(dp213
g66
(dp214
sg75
g199
sg68
(lp215
g61
(g62
g63
NtRp216
(dp217
g66
(dp218
g74
I5
ssg75
g212
sg68
(lp219
S'186.32.48.60'
p220
asbasbasbag61
(g77
g63
NtRp221
(dp222
g66
(dp223
sg75
g71
sg68
(lp224
g61
(g82
g63
NtRp225
(dp226
g66
(dp227
g86
g87
ssg75
g221
sg68
(lp228
S'controller'
p229
asbag61
(g82
g63
NtRp230
(dp231
g66
(dp232
g93
g94
ssg75
g221
sg68
(lp233
S':'
asbag61
(g82
g63
NtRp234
(dp235
g66
(dp236
sg75
g221
sg68
(lp237
g61
(g62
g63
NtRp238
(dp239
g66
(dp240
g74
I5
ssg75
g234
sg68
(lp241
S'default'
p242
asbasbasbag61
(g77
g63
NtRp243
(dp244
g66
(dp245
sg75
g71
sg68
(lp246
g61
(g82
g63
NtRp247
(dp248
g66
(dp249
g86
g87
ssg75
g243
sg68
(lp250
S'cookies'
p251
asbag61
(g82
g63
NtRp252
(dp253
g66
(dp254
g93
g94
ssg75
g243
sg68
(lp255
S':'
asbag61
(g82
g63
NtRp256
(dp257
g66
(dp258
sg75
g243
sg68
(lp259
g61
(g62
g63
NtRp260
(dp261
g66
(dp262
g74
I5
ssg75
g256
sg68
(lp263
g61
(g70
g63
NtRp264
(dp265
g66
(dp266
g74
I4
ssg75
Nsg68
(lp267
g61
(g77
g63
NtRp268
(dp269
g66
(dp270
sg75
g264
sg68
(lp271
g61
(g82
g63
NtRp272
(dp273
g66
(dp274
g86
g87
ssg75
g268
sg68
(lp275
S'session_id_admin'
p276
asbag61
(g82
g63
NtRp277
(dp278
g66
(dp279
g93
g94
ssg75
g268
sg68
(lp280
S':'
asbag61
(g82
g63
NtRp281
(dp282
g66
(dp283
sg75
g268
sg68
(lp284
g61
(g62
g63
NtRp285
(dp286
g66
(dp287
g74
I4
ssg75
g281
sg68
(lp288
g61
(g70
g63
NtRp289
(dp290
g66
(dp291
g74
I3
ssg75
Nsg68
(lp292
g61
(g77
g63
NtRp293
(dp294
g66
(dp295
sg75
g289
sg68
(lp296
g61
(g82
g63
NtRp297
(dp298
g66
(dp299
g86
g87
ssg75
g293
sg68
(lp300
S'comment'
p301
asbag61
(g82
g63
NtRp302
(dp303
g66
(dp304
g93
g94
ssg75
g293
sg68
(lp305
S':'
asbag61
(g82
g63
NtRp306
(dp307
g66
(dp308
sg75
g293
sg68
(lp309
g61
(g62
g63
NtRp310
(dp311
g66
(dp312
g74
I3
ssg75
g306
sg68
(lp313
S''
asbasbasbag61
(g77
g63
NtRp314
(dp315
g66
(dp316
sg75
g289
sg68
(lp317
g61
(g82
g63
NtRp318
(dp319
g66
(dp320
g86
g87
ssg75
g314
sg68
(lp321
S'domain'
p322
asbag61
(g82
g63
NtRp323
(dp324
g66
(dp325
g93
g94
ssg75
g314
sg68
(lp326
S':'
asbag61
(g82
g63
NtRp327
(dp328
g66
(dp329
sg75
g314
sg68
(lp330
g61
(g62
g63
NtRp331
(dp332
g66
(dp333
g74
I3
ssg75
g327
sg68
(lp334
S''
asbasbasbag61
(g77
g63
NtRp335
(dp336
g66
(dp337
sg75
g289
sg68
(lp338
g61
(g82
g63
NtRp339
(dp340
g66
(dp341
g86
g87
ssg75
g335
sg68
(lp342
S'expires'
p343
asbag61
(g82
g63
NtRp344
(dp345
g66
(dp346
g93
g94
ssg75
g335
sg68
(lp347
S':'
asbag61
(g82
g63
NtRp348
(dp349
g66
(dp350
sg75
g335
sg68
(lp351
g61
(g62
g63
NtRp352
(dp353
g66
(dp354
g74
I3
ssg75
g348
sg68
(lp355
S''
asbasbasbag61
(g77
g63
NtRp356
(dp357
g66
(dp358
sg75
g289
sg68
(lp359
g61
(g82
g63
NtRp360
(dp361
g66
(dp362
g86
g87
ssg75
g356
sg68
(lp363
S'httponly'
p364
asbag61
(g82
g63
NtRp365
(dp366
g66
(dp367
g93
g94
ssg75
g356
sg68
(lp368
S':'
asbag61
(g82
g63
NtRp369
(dp370
g66
(dp371
sg75
g356
sg68
(lp372
g61
(g62
g63
NtRp373
(dp374
g66
(dp375
g74
I3
ssg75
g369
sg68
(lp376
S''
asbasbasbag61
(g77
g63
NtRp377
(dp378
g66
(dp379
sg75
g289
sg68
(lp380
g61
(g82
g63
NtRp381
(dp382
g66
(dp383
g86
g87
ssg75
g377
sg68
(lp384
S'max-age'
p385
asbag61
(g82
g63
NtRp386
(dp387
g66
(dp388
g93
g94
ssg75
g377
sg68
(lp389
S':'
asbag61
(g82
g63
NtRp390
(dp391
g66
(dp392
sg75
g377
sg68
(lp393
g61
(g62
g63
NtRp394
(dp395
g66
(dp396
g74
I3
ssg75
g390
sg68
(lp397
S''
asbasbasbag61
(g77
g63
NtRp398
(dp399
g66
(dp400
sg75
g289
sg68
(lp401
g61
(g82
g63
NtRp402
(dp403
g66
(dp404
g86
g87
ssg75
g398
sg68
(lp405
S'path'
p406
asbag61
(g82
g63
NtRp407
(dp408
g66
(dp409
g93
g94
ssg75
g398
sg68
(lp410
S':'
asbag61
(g82
g63
NtRp411
(dp412
g66
(dp413
sg75
g398
sg68
(lp414
g61
(g62
g63
NtRp415
(dp416
g66
(dp417
g74
I3
ssg75
g411
sg68
(lp418
S''
asbasbasbag61
(g77
g63
NtRp419
(dp420
g66
(dp421
sg75
g289
sg68
(lp422
g61
(g82
g63
NtRp423
(dp424
g66
(dp425
g86
g87
ssg75
g419
sg68
(lp426
S'secure'
p427
asbag61
(g82
g63
NtRp428
(dp429
g66
(dp430
g93
g94
ssg75
g419
sg68
(lp431
S':'
asbag61
(g82
g63
NtRp432
(dp433
g66
(dp434
sg75
g419
sg68
(lp435
g61
(g62
g63
NtRp436
(dp437
g66
(dp438
g74
I3
ssg75
g432
sg68
(lp439
S''
asbasbasbag61
(g77
g63
NtRp440
(dp441
g66
(dp442
sg75
g289
sg68
(lp443
g61
(g82
g63
NtRp444
(dp445
g66
(dp446
g86
g87
ssg75
g440
sg68
(lp447
S'version'
p448
asbag61
(g82
g63
NtRp449
(dp450
g66
(dp451
g93
g94
ssg75
g440
sg68
(lp452
S':'
asbag61
(g82
g63
NtRp453
(dp454
g66
(dp455
sg75
g440
sg68
(lp456
g61
(g62
g63
NtRp457
(dp458
g66
(dp459
g74
I3
ssg75
g453
sg68
(lp460
S''
asbasbasbasbasbasbasbag61
(g77
g63
NtRp461
(dp462
g66
(dp463
sg75
g264
sg68
(lp464
g61
(g82
g63
NtRp465
(dp466
g66
(dp467
g86
g87
ssg75
g461
sg68
(lp468
S'session_id_init'
p469
asbag61
(g82
g63
NtRp470
(dp471
g66
(dp472
g93
g94
ssg75
g461
sg68
(lp473
S':'
asbag61
(g82
g63
NtRp474
(dp475
g66
(dp476
sg75
g461
sg68
(lp477
g61
(g62
g63
NtRp478
(dp479
g66
(dp480
g74
I4
ssg75
g474
sg68
(lp481
g61
(g70
g63
NtRp482
(dp483
g66
(dp484
g74
I3
ssg75
Nsg68
(lp485
g61
(g77
g63
NtRp486
(dp487
g66
(dp488
sg75
g482
sg68
(lp489
g61
(g82
g63
NtRp490
(dp491
g66
(dp492
g86
g87
ssg75
g486
sg68
(lp493
g301
asbag61
(g82
g63
NtRp494
(dp495
g66
(dp496
g93
g94
ssg75
g486
sg68
(lp497
S':'
asbag61
(g82
g63
NtRp498
(dp499
g66
(dp500
sg75
g486
sg68
(lp501
g61
(g62
g63
NtRp502
(dp503
g66
(dp504
g74
I3
ssg75
g498
sg68
(lp505
S''
asbasbasbag61
(g77
g63
NtRp506
(dp507
g66
(dp508
sg75
g482
sg68
(lp509
g61
(g82
g63
NtRp510
(dp511
g66
(dp512
g86
g87
ssg75
g506
sg68
(lp513
g322
asbag61
(g82
g63
NtRp514
(dp515
g66
(dp516
g93
g94
ssg75
g506
sg68
(lp517
S':'
asbag61
(g82
g63
NtRp518
(dp519
g66
(dp520
sg75
g506
sg68
(lp521
g61
(g62
g63
NtRp522
(dp523
g66
(dp524
g74
I3
ssg75
g518
sg68
(lp525
S''
asbasbasbag61
(g77
g63
NtRp526
(dp527
g66
(dp528
sg75
g482
sg68
(lp529
g61
(g82
g63
NtRp530
(dp531
g66
(dp532
g86
g87
ssg75
g526
sg68
(lp533
g343
asbag61
(g82
g63
NtRp534
(dp535
g66
(dp536
g93
g94
ssg75
g526
sg68
(lp537
S':'
asbag61
(g82
g63
NtRp538
(dp539
g66
(dp540
sg75
g526
sg68
(lp541
g61
(g62
g63
NtRp542
(dp543
g66
(dp544
g74
I3
ssg75
g538
sg68
(lp545
S''
asbasbasbag61
(g77
g63
NtRp546
(dp547
g66
(dp548
sg75
g482
sg68
(lp549
g61
(g82
g63
NtRp550
(dp551
g66
(dp552
g86
g87
ssg75
g546
sg68
(lp553
g364
asbag61
(g82
g63
NtRp554
(dp555
g66
(dp556
g93
g94
ssg75
g546
sg68
(lp557
S':'
asbag61
(g82
g63
NtRp558
(dp559
g66
(dp560
sg75
g546
sg68
(lp561
g61
(g62
g63
NtRp562
(dp563
g66
(dp564
g74
I3
ssg75
g558
sg68
(lp565
S''
asbasbasbag61
(g77
g63
NtRp566
(dp567
g66
(dp568
sg75
g482
sg68
(lp569
g61
(g82
g63
NtRp570
(dp571
g66
(dp572
g86
g87
ssg75
g566
sg68
(lp573
g385
asbag61
(g82
g63
NtRp574
(dp575
g66
(dp576
g93
g94
ssg75
g566
sg68
(lp577
S':'
asbag61
(g82
g63
NtRp578
(dp579
g66
(dp580
sg75
g566
sg68
(lp581
g61
(g62
g63
NtRp582
(dp583
g66
(dp584
g74
I3
ssg75
g578
sg68
(lp585
S''
asbasbasbag61
(g77
g63
NtRp586
(dp587
g66
(dp588
sg75
g482
sg68
(lp589
g61
(g82
g63
NtRp590
(dp591
g66
(dp592
g86
g87
ssg75
g586
sg68
(lp593
g406
asbag61
(g82
g63
NtRp594
(dp595
g66
(dp596
g93
g94
ssg75
g586
sg68
(lp597
S':'
asbag61
(g82
g63
NtRp598
(dp599
g66
(dp600
sg75
g586
sg68
(lp601
g61
(g62
g63
NtRp602
(dp603
g66
(dp604
g74
I3
ssg75
g598
sg68
(lp605
S''
asbasbasbag61
(g77
g63
NtRp606
(dp607
g66
(dp608
sg75
g482
sg68
(lp609
g61
(g82
g63
NtRp610
(dp611
g66
(dp612
g86
g87
ssg75
g606
sg68
(lp613
g427
asbag61
(g82
g63
NtRp614
(dp615
g66
(dp616
g93
g94
ssg75
g606
sg68
(lp617
S':'
asbag61
(g82
g63
NtRp618
(dp619
g66
(dp620
sg75
g606
sg68
(lp621
g61
(g62
g63
NtRp622
(dp623
g66
(dp624
g74
I3
ssg75
g618
sg68
(lp625
S''
asbasbasbag61
(g77
g63
NtRp626
(dp627
g66
(dp628
sg75
g482
sg68
(lp629
g61
(g82
g63
NtRp630
(dp631
g66
(dp632
g86
g87
ssg75
g626
sg68
(lp633
g448
asbag61
(g82
g63
NtRp634
(dp635
g66
(dp636
g93
g94
ssg75
g626
sg68
(lp637
S':'
asbag61
(g82
g63
NtRp638
(dp639
g66
(dp640
sg75
g626
sg68
(lp641
g61
(g62
g63
NtRp642
(dp643
g66
(dp644
g74
I3
ssg75
g638
sg68
(lp645
S''
asbasbasbasbasbasbasbag61
(g77
g63
NtRp646
(dp647
g66
(dp648
sg75
g264
sg68
(lp649
g61
(g82
g63
NtRp650
(dp651
g66
(dp652
g86
g87
ssg75
g646
sg68
(lp653
S'session_id_welcome'
p654
asbag61
(g82
g63
NtRp655
(dp656
g66
(dp657
g93
g94
ssg75
g646
sg68
(lp658
S':'
asbag61
(g82
g63
NtRp659
(dp660
g66
(dp661
sg75
g646
sg68
(lp662
g61
(g62
g63
NtRp663
(dp664
g66
(dp665
g74
I4
ssg75
g659
sg68
(lp666
g61
(g70
g63
NtRp667
(dp668
g66
(dp669
g74
I3
ssg75
Nsg68
(lp670
g61
(g77
g63
NtRp671
(dp672
g66
(dp673
sg75
g667
sg68
(lp674
g61
(g82
g63
NtRp675
(dp676
g66
(dp677
g86
g87
ssg75
g671
sg68
(lp678
g301
asbag61
(g82
g63
NtRp679
(dp680
g66
(dp681
g93
g94
ssg75
g671
sg68
(lp682
S':'
asbag61
(g82
g63
NtRp683
(dp684
g66
(dp685
sg75
g671
sg68
(lp686
g61
(g62
g63
NtRp687
(dp688
g66
(dp689
g74
I3
ssg75
g683
sg68
(lp690
S''
asbasbasbag61
(g77
g63
NtRp691
(dp692
g66
(dp693
sg75
g667
sg68
(lp694
g61
(g82
g63
NtRp695
(dp696
g66
(dp697
g86
g87
ssg75
g691
sg68
(lp698
g322
asbag61
(g82
g63
NtRp699
(dp700
g66
(dp701
g93
g94
ssg75
g691
sg68
(lp702
S':'
asbag61
(g82
g63
NtRp703
(dp704
g66
(dp705
sg75
g691
sg68
(lp706
g61
(g62
g63
NtRp707
(dp708
g66
(dp709
g74
I3
ssg75
g703
sg68
(lp710
S''
asbasbasbag61
(g77
g63
NtRp711
(dp712
g66
(dp713
sg75
g667
sg68
(lp714
g61
(g82
g63
NtRp715
(dp716
g66
(dp717
g86
g87
ssg75
g711
sg68
(lp718
g343
asbag61
(g82
g63
NtRp719
(dp720
g66
(dp721
g93
g94
ssg75
g711
sg68
(lp722
S':'
asbag61
(g82
g63
NtRp723
(dp724
g66
(dp725
sg75
g711
sg68
(lp726
g61
(g62
g63
NtRp727
(dp728
g66
(dp729
g74
I3
ssg75
g723
sg68
(lp730
S''
asbasbasbag61
(g77
g63
NtRp731
(dp732
g66
(dp733
sg75
g667
sg68
(lp734
g61
(g82
g63
NtRp735
(dp736
g66
(dp737
g86
g87
ssg75
g731
sg68
(lp738
g364
asbag61
(g82
g63
NtRp739
(dp740
g66
(dp741
g93
g94
ssg75
g731
sg68
(lp742
S':'
asbag61
(g82
g63
NtRp743
(dp744
g66
(dp745
sg75
g731
sg68
(lp746
g61
(g62
g63
NtRp747
(dp748
g66
(dp749
g74
I3
ssg75
g743
sg68
(lp750
S''
asbasbasbag61
(g77
g63
NtRp751
(dp752
g66
(dp753
sg75
g667
sg68
(lp754
g61
(g82
g63
NtRp755
(dp756
g66
(dp757
g86
g87
ssg75
g751
sg68
(lp758
g385
asbag61
(g82
g63
NtRp759
(dp760
g66
(dp761
g93
g94
ssg75
g751
sg68
(lp762
S':'
asbag61
(g82
g63
NtRp763
(dp764
g66
(dp765
sg75
g751
sg68
(lp766
g61
(g62
g63
NtRp767
(dp768
g66
(dp769
g74
I3
ssg75
g763
sg68
(lp770
S''
asbasbasbag61
(g77
g63
NtRp771
(dp772
g66
(dp773
sg75
g667
sg68
(lp774
g61
(g82
g63
NtRp775
(dp776
g66
(dp777
g86
g87
ssg75
g771
sg68
(lp778
g406
asbag61
(g82
g63
NtRp779
(dp780
g66
(dp781
g93
g94
ssg75
g771
sg68
(lp782
S':'
asbag61
(g82
g63
NtRp783
(dp784
g66
(dp785
sg75
g771
sg68
(lp786
g61
(g62
g63
NtRp787
(dp788
g66
(dp789
g74
I3
ssg75
g783
sg68
(lp790
S''
asbasbasbag61
(g77
g63
NtRp791
(dp792
g66
(dp793
sg75
g667
sg68
(lp794
g61
(g82
g63
NtRp795
(dp796
g66
(dp797
g86
g87
ssg75
g791
sg68
(lp798
g427
asbag61
(g82
g63
NtRp799
(dp800
g66
(dp801
g93
g94
ssg75
g791
sg68
(lp802
S':'
asbag61
(g82
g63
NtRp803
(dp804
g66
(dp805
sg75
g791
sg68
(lp806
g61
(g62
g63
NtRp807
(dp808
g66
(dp809
g74
I3
ssg75
g803
sg68
(lp810
S''
asbasbasbag61
(g77
g63
NtRp811
(dp812
g66
(dp813
sg75
g667
sg68
(lp814
g61
(g82
g63
NtRp815
(dp816
g66
(dp817
g86
g87
ssg75
g811
sg68
(lp818
g448
asbag61
(g82
g63
NtRp819
(dp820
g66
(dp821
g93
g94
ssg75
g811
sg68
(lp822
S':'
asbag61
(g82
g63
NtRp823
(dp824
g66
(dp825
sg75
g811
sg68
(lp826
g61
(g62
g63
NtRp827
(dp828
g66
(dp829
g74
I3
ssg75
g823
sg68
(lp830
S''
asbasbasbasbasbasbasbasbasbasbasbag61
(g77
g63
NtRp831
(dp832
g66
(dp833
sg75
g71
sg68
(lp834
g61
(g82
g63
NtRp835
(dp836
g66
(dp837
g86
g87
ssg75
g831
sg68
(lp838
S'env'
p839
asbag61
(g82
g63
NtRp840
(dp841
g66
(dp842
g93
g94
ssg75
g831
sg68
(lp843
S':'
asbag61
(g82
g63
NtRp844
(dp845
g66
(dp846
sg75
g831
sg68
(lp847
g61
(g62
g63
NtRp848
(dp849
g66
(dp850
g74
I5
ssg75
g844
sg68
(lp851
g61
(g70
g63
NtRp852
(dp853
g66
(dp854
g74
I4
ssg75
Nsg68
(lp855
g61
(g77
g63
NtRp856
(dp857
g66
(dp858
sg75
g852
sg68
(lp859
g61
(g82
g63
NtRp860
(dp861
g66
(dp862
g86
g87
ssg75
g856
sg68
(lp863
S'app_folders'
p864
asbag61
(g82
g63
NtRp865
(dp866
g66
(dp867
g93
g94
ssg75
g856
sg68
(lp868
S':'
asbag61
(g82
g63
NtRp869
(dp870
g66
(dp871
sg75
g856
sg68
(lp872
g61
(g62
g63
NtRp873
(dp874
g66
(dp875
g74
I4
ssg75
g869
sg68
(lp876
S"set(['/home/arvin/web2py/applications/admin/', '/home/arvin/web2py/applications/welcome/'])"
p877
asbasbasbag61
(g77
g63
NtRp878
(dp879
g66
(dp880
sg75
g852
sg68
(lp881
g61
(g82
g63
NtRp882
(dp883
g66
(dp884
g86
g87
ssg75
g878
sg68
(lp885
S'applications_parent'
p886
asbag61
(g82
g63
NtRp887
(dp888
g66
(dp889
g93
g94
ssg75
g878
sg68
(lp890
S':'
asbag61
(g82
g63
NtRp891
(dp892
g66
(dp893
sg75
g878
sg68
(lp894
g61
(g62
g63
NtRp895
(dp896
g66
(dp897
g74
I4
ssg75
g891
sg68
(lp898
S'/home/arvin/web2py'
p899
asbasbasbag61
(g77
g63
NtRp900
(dp901
g66
(dp902
sg75
g852
sg68
(lp903
g61
(g82
g63
NtRp904
(dp905
g66
(dp906
g86
g87
ssg75
g900
sg68
(lp907
S'content_length'
p908
asbag61
(g82
g63
NtRp909
(dp910
g66
(dp911
g93
g94
ssg75
g900
sg68
(lp912
S':'
asbag61
(g82
g63
NtRp913
(dp914
g66
(dp915
sg75
g900
sg68
(lp916
g61
(g62
g63
NtRp917
(dp918
g66
(dp919
g74
I4
ssg75
g913
sg68
(lp920
S''
asbasbasbag61
(g77
g63
NtRp921
(dp922
g66
(dp923
sg75
g852
sg68
(lp924
g61
(g82
g63
NtRp925
(dp926
g66
(dp927
g86
g87
ssg75
g921
sg68
(lp928
S'content_type'
p929
asbag61
(g82
g63
NtRp930
(dp931
g66
(dp932
g93
g94
ssg75
g921
sg68
(lp933
S':'
asbag61
(g82
g63
NtRp934
(dp935
g66
(dp936
sg75
g921
sg68
(lp937
g61
(g62
g63
NtRp938
(dp939
g66
(dp940
g74
I4
ssg75
g934
sg68
(lp941
S''
asbasbasbag61
(g77
g63
NtRp942
(dp943
g66
(dp944
sg75
g852
sg68
(lp945
g61
(g82
g63
NtRp946
(dp947
g66
(dp948
g86
g87
ssg75
g942
sg68
(lp949
S'db_sessions'
p950
asbag61
(g82
g63
NtRp951
(dp952
g66
(dp953
g93
g94
ssg75
g942
sg68
(lp954
S':'
asbag61
(g82
g63
NtRp955
(dp956
g66
(dp957
sg75
g942
sg68
(lp958
g61
(g62
g63
NtRp959
(dp960
g66
(dp961
g74
I4
ssg75
g955
sg68
(lp962
S'set([])'
p963
asbasbasbag61
(g77
g63
NtRp964
(dp965
g66
(dp966
sg75
g852
sg68
(lp967
g61
(g82
g63
NtRp968
(dp969
g66
(dp970
g86
g87
ssg75
g964
sg68
(lp971
S'debugging'
p972
asbag61
(g82
g63
NtRp973
(dp974
g66
(dp975
g93
g94
ssg75
g964
sg68
(lp976
S':'
asbag61
(g82
g63
NtRp977
(dp978
g66
(dp979
sg75
g964
sg68
(lp980
g61
(g62
g63
NtRp981
(dp982
g66
(dp983
g74
I4
ssg75
g977
sg68
(lp984
g104
asbasbasbag61
(g77
g63
NtRp985
(dp986
g66
(dp987
sg75
g852
sg68
(lp988
g61
(g82
g63
NtRp989
(dp990
g66
(dp991
g86
g87
ssg75
g985
sg68
(lp992
S'document_root'
p993
asbag61
(g82
g63
NtRp994
(dp995
g66
(dp996
g93
g94
ssg75
g985
sg68
(lp997
S':'
asbag61
(g82
g63
NtRp998
(dp999
g66
(dp1000
sg75
g985
sg68
(lp1001
g61
(g62
g63
NtRp1002
(dp1003
g66
(dp1004
g74
I4
ssg75
g998
sg68
(lp1005
S'/usr/local/nginx/html'
p1006
asbasbasbag61
(g77
g63
NtRp1007
(dp1008
g66
(dp1009
sg75
g852
sg68
(lp1010
g61
(g82
g63
NtRp1011
(dp1012
g66
(dp1013
g86
g87
ssg75
g1007
sg68
(lp1014
S'gluon_parent'
p1015
asbag61
(g82
g63
NtRp1016
(dp1017
g66
(dp1018
g93
g94
ssg75
g1007
sg68
(lp1019
S':'
asbag61
(g82
g63
NtRp1020
(dp1021
g66
(dp1022
sg75
g1007
sg68
(lp1023
g61
(g62
g63
NtRp1024
(dp1025
g66
(dp1026
g74
I4
ssg75
g1020
sg68
(lp1027
g899
asbasbasbag61
(g77
g63
NtRp1028
(dp1029
g66
(dp1030
sg75
g852
sg68
(lp1031
g61
(g82
g63
NtRp1032
(dp1033
g66
(dp1034
g86
g87
ssg75
g1028
sg68
(lp1035
S'http_accept'
p1036
asbag61
(g82
g63
NtRp1037
(dp1038
g66
(dp1039
g93
g94
ssg75
g1028
sg68
(lp1040
S':'
asbag61
(g82
g63
NtRp1041
(dp1042
g66
(dp1043
sg75
g1028
sg68
(lp1044
g61
(g62
g63
NtRp1045
(dp1046
g66
(dp1047
g74
I4
ssg75
g1041
sg68
(lp1048
S'text/html,application/xhtml+xml,application/xml;q=0.9,*/*;q=0.8'
p1049
asbasbasbag61
(g77
g63
NtRp1050
(dp1051
g66
(dp1052
sg75
g852
sg68
(lp1053
g61
(g82
g63
NtRp1054
(dp1055
g66
(dp1056
g86
g87
ssg75
g1050
sg68
(lp1057
S'http_accept_charset'
p1058
asbag61
(g82
g63
NtRp1059
(dp1060
g66
(dp1061
g93
g94
ssg75
g1050
sg68
(lp1062
S':'
asbag61
(g82
g63
NtRp1063
(dp1064
g66
(dp1065
sg75
g1050
sg68
(lp1066
g61
(g62
g63
NtRp1067
(dp1068
g66
(dp1069
g74
I4
ssg75
g1063
sg68
(lp1070
S'ISO-8859-1,utf-8;q=0.7,*;q=0.7'
p1071
asbasbasbag61
(g77
g63
NtRp1072
(dp1073
g66
(dp1074
sg75
g852
sg68
(lp1075
g61
(g82
g63
NtRp1076
(dp1077
g66
(dp1078
g86
g87
ssg75
g1072
sg68
(lp1079
S'http_accept_encoding'
p1080
asbag61
(g82
g63
NtRp1081
(dp1082
g66
(dp1083
g93
g94
ssg75
g1072
sg68
(lp1084
S':'
asbag61
(g82
g63
NtRp1085
(dp1086
g66
(dp1087
sg75
g1072
sg68
(lp1088
g61
(g62
g63
NtRp1089
(dp1090
g66
(dp1091
g74
I4
ssg75
g1085
sg68
(lp1092
S'gzip, deflate'
p1093
asbasbasbag61
(g77
g63
NtRp1094
(dp1095
g66
(dp1096
sg75
g852
sg68
(lp1097
g61
(g82
g63
NtRp1098
(dp1099
g66
(dp1100
g86
g87
ssg75
g1094
sg68
(lp1101
S'http_accept_language'
p1102
asbag61
(g82
g63
NtRp1103
(dp1104
g66
(dp1105
g93
g94
ssg75
g1094
sg68
(lp1106
S':'
asbag61
(g82
g63
NtRp1107
(dp1108
g66
(dp1109
sg75
g1094
sg68
(lp1110
g61
(g62
g63
NtRp1111
(dp1112
g66
(dp1113
g74
I4
ssg75
g1107
sg68
(lp1114
S'en-us,en;q=0.5'
p1115
asbasbasbag61
(g77
g63
NtRp1116
(dp1117
g66
(dp1118
sg75
g852
sg68
(lp1119
g61
(g82
g63
NtRp1120
(dp1121
g66
(dp1122
g86
g87
ssg75
g1116
sg68
(lp1123
S'http_connection'
p1124
asbag61
(g82
g63
NtRp1125
(dp1126
g66
(dp1127
g93
g94
ssg75
g1116
sg68
(lp1128
S':'
asbag61
(g82
g63
NtRp1129
(dp1130
g66
(dp1131
sg75
g1116
sg68
(lp1132
g61
(g62
g63
NtRp1133
(dp1134
g66
(dp1135
g74
I4
ssg75
g1129
sg68
(lp1136
S'keep-alive'
p1137
asbasbasbag61
(g77
g63
NtRp1138
(dp1139
g66
(dp1140
sg75
g852
sg68
(lp1141
g61
(g82
g63
NtRp1142
(dp1143
g66
(dp1144
g86
g87
ssg75
g1138
sg68
(lp1145
S'http_cookie'
p1146
asbag61
(g82
g63
NtRp1147
(dp1148
g66
(dp1149
g93
g94
ssg75
g1138
sg68
(lp1150
S':'
asbag61
(g82
g63
NtRp1151
(dp1152
g66
(dp1153
sg75
g1138
sg68
(lp1154
g61
(g62
g63
NtRp1155
(dp1156
g66
(dp1157
g74
I4
ssg75
g1151
sg68
(lp1158
S'__utma=159863860.1937463137.1307715134.1308598504.1308686225.26; __utmz=159863860.1307715134.1.1.utmcsr=(direct)|utmccn=(direct)|utmcmd=(none); session_id_init=186.32.48.60-302c03b0-d800-439d-9ea0-600a4ab492a9; session_id_admin=186.32.48.60-cf518a5d-2337-45cf-9e57-dadf486628d0; __utmb=159863860.2.10.1308686225; __utmc=159863860; session_id_welcome=186.32.48.60-9dd50004-3126-421e-8ced-491be3f5cbaa'
p1159
asbasbasbag61
(g77
g63
NtRp1160
(dp1161
g66
(dp1162
sg75
g852
sg68
(lp1163
g61
(g82
g63
NtRp1164
(dp1165
g66
(dp1166
g86
g87
ssg75
g1160
sg68
(lp1167
S'http_host'
p1168
asbag61
(g82
g63
NtRp1169
(dp1170
g66
(dp1171
g93
g94
ssg75
g1160
sg68
(lp1172
S':'
asbag61
(g82
g63
NtRp1173
(dp1174
g66
(dp1175
sg75
g1160
sg68
(lp1176
g61
(g62
g63
NtRp1177
(dp1178
g66
(dp1179
g74
I4
ssg75
g1173
sg68
(lp1180
S'a.xchg.com'
p1181
asbasbasbag61
(g77
g63
NtRp1182
(dp1183
g66
(dp1184
sg75
g852
sg68
(lp1185
g61
(g82
g63
NtRp1186
(dp1187
g66
(dp1188
g86
g87
ssg75
g1182
sg68
(lp1189
S'http_keep_alive'
p1190
asbag61
(g82
g63
NtRp1191
(dp1192
g66
(dp1193
g93
g94
ssg75
g1182
sg68
(lp1194
S':'
asbag61
(g82
g63
NtRp1195
(dp1196
g66
(dp1197
sg75
g1182
sg68
(lp1198
g61
(g62
g63
NtRp1199
(dp1200
g66
(dp1201
g74
I4
ssg75
g1195
sg68
(lp1202
S'115'
p1203
asbasbasbag61
(g77
g63
NtRp1204
(dp1205
g66
(dp1206
sg75
g852
sg68
(lp1207
g61
(g82
g63
NtRp1208
(dp1209
g66
(dp1210
g86
g87
ssg75
g1204
sg68
(lp1211
S'http_referer'
p1212
asbag61
(g82
g63
NtRp1213
(dp1214
g66
(dp1215
g93
g94
ssg75
g1204
sg68
(lp1216
S':'
asbag61
(g82
g63
NtRp1217
(dp1218
g66
(dp1219
sg75
g1204
sg68
(lp1220
g61
(g62
g63
NtRp1221
(dp1222
g66
(dp1223
g74
I4
ssg75
g1217
sg68
(lp1224
S'https://a.xchg.com/admin/default/ticket/welcome/186.32.48.60.2011-06-21.14-26-03.d8d55100-381d-4fd1-b83e-06db5304bdcd'
p1225
asbasbasbag61
(g77
g63
NtRp1226
(dp1227
g66
(dp1228
sg75
g852
sg68
(lp1229
g61
(g82
g63
NtRp1230
(dp1231
g66
(dp1232
g86
g87
ssg75
g1226
sg68
(lp1233
S'http_user_agent'
p1234
asbag61
(g82
g63
NtRp1235
(dp1236
g66
(dp1237
g93
g94
ssg75
g1226
sg68
(lp1238
S':'
asbag61
(g82
g63
NtRp1239
(dp1240
g66
(dp1241
sg75
g1226
sg68
(lp1242
g61
(g62
g63
NtRp1243
(dp1244
g66
(dp1245
g74
I4
ssg75
g1239
sg68
(lp1246
S'Mozilla/5.0 (Windows NT 6.1; WOW64; rv:2.0.1) Gecko/20100101 Firefox/4.0.1'
p1247
asbasbasbag61
(g77
g63
NtRp1248
(dp1249
g66
(dp1250
sg75
g852
sg68
(lp1251
g61
(g82
g63
NtRp1252
(dp1253
g66
(dp1254
g86
g87
ssg75
g1248
sg68
(lp1255
S'https'
p1256
asbag61
(g82
g63
NtRp1257
(dp1258
g66
(dp1259
g93
g94
ssg75
g1248
sg68
(lp1260
S':'
asbag61
(g82
g63
NtRp1261
(dp1262
g66
(dp1263
sg75
g1248
sg68
(lp1264
g61
(g62
g63
NtRp1265
(dp1266
g66
(dp1267
g74
I4
ssg75
g1261
sg68
(lp1268
S'on'
p1269
asbasbasbag61
(g77
g63
NtRp1270
(dp1271
g66
(dp1272
sg75
g852
sg68
(lp1273
g61
(g82
g63
NtRp1274
(dp1275
g66
(dp1276
g86
g87
ssg75
g1270
sg68
(lp1277
S'path_info'
p1278
asbag61
(g82
g63
NtRp1279
(dp1280
g66
(dp1281
g93
g94
ssg75
g1270
sg68
(lp1282
S':'
asbag61
(g82
g63
NtRp1283
(dp1284
g66
(dp1285
sg75
g1270
sg68
(lp1286
g61
(g62
g63
NtRp1287
(dp1288
g66
(dp1289
g74
I4
ssg75
g1283
sg68
(lp1290
S'/admin/default/ticket/admin/186.32.48.60.2011-06-21.14-26-05.2aaeba7d-6008-49dc-a8c6-abb15b81a32d'
p1291
asbasbasbag61
(g77
g63
NtRp1292
(dp1293
g66
(dp1294
sg75
g852
sg68
(lp1295
g61
(g82
g63
NtRp1296
(dp1297
g66
(dp1298
g86
g87
ssg75
g1292
sg68
(lp1299
S'query_string'
p1300
asbag61
(g82
g63
NtRp1301
(dp1302
g66
(dp1303
g93
g94
ssg75
g1292
sg68
(lp1304
S':'
asbag61
(g82
g63
NtRp1305
(dp1306
g66
(dp1307
sg75
g1292
sg68
(lp1308
g61
(g62
g63
NtRp1309
(dp1310
g66
(dp1311
g74
I4
ssg75
g1305
sg68
(lp1312
S''
asbasbasbag61
(g77
g63
NtRp1313
(dp1314
g66
(dp1315
sg75
g852
sg68
(lp1316
g61
(g82
g63
NtRp1317
(dp1318
g66
(dp1319
g86
g87
ssg75
g1313
sg68
(lp1320
S'remote_addr'
p1321
asbag61
(g82
g63
NtRp1322
(dp1323
g66
(dp1324
g93
g94
ssg75
g1313
sg68
(lp1325
S':'
asbag61
(g82
g63
NtRp1326
(dp1327
g66
(dp1328
sg75
g1313
sg68
(lp1329
g61
(g62
g63
NtRp1330
(dp1331
g66
(dp1332
g74
I4
ssg75
g1326
sg68
(lp1333
g220
asbasbasbag61
(g77
g63
NtRp1334
(dp1335
g66
(dp1336
sg75
g852
sg68
(lp1337
g61
(g82
g63
NtRp1338
(dp1339
g66
(dp1340
g86
g87
ssg75
g1334
sg68
(lp1341
S'remote_port'
p1342
asbag61
(g82
g63
NtRp1343
(dp1344
g66
(dp1345
g93
g94
ssg75
g1334
sg68
(lp1346
S':'
asbag61
(g82
g63
NtRp1347
(dp1348
g66
(dp1349
sg75
g1334
sg68
(lp1350
g61
(g62
g63
NtRp1351
(dp1352
g66
(dp1353
g74
I4
ssg75
g1347
sg68
(lp1354
S'62911'
p1355
asbasbasbag61
(g77
g63
NtRp1356
(dp1357
g66
(dp1358
sg75
g852
sg68
(lp1359
g61
(g82
g63
NtRp1360
(dp1361
g66
(dp1362
g86
g87
ssg75
g1356
sg68
(lp1363
S'request_method'
p1364
asbag61
(g82
g63
NtRp1365
(dp1366
g66
(dp1367
g93
g94
ssg75
g1356
sg68
(lp1368
S':'
asbag61
(g82
g63
NtRp1369
(dp1370
g66
(dp1371
sg75
g1356
sg68
(lp1372
g61
(g62
g63
NtRp1373
(dp1374
g66
(dp1375
g74
I4
ssg75
g1369
sg68
(lp1376
S'GET'
p1377
asbasbasbag61
(g77
g63
NtRp1378
(dp1379
g66
(dp1380
sg75
g852
sg68
(lp1381
g61
(g82
g63
NtRp1382
(dp1383
g66
(dp1384
g86
g87
ssg75
g1378
sg68
(lp1385
S'request_uri'
p1386
asbag61
(g82
g63
NtRp1387
(dp1388
g66
(dp1389
g93
g94
ssg75
g1378
sg68
(lp1390
S':'
asbag61
(g82
g63
NtRp1391
(dp1392
g66
(dp1393
sg75
g1378
sg68
(lp1394
g61
(g62
g63
NtRp1395
(dp1396
g66
(dp1397
g74
I4
ssg75
g1391
sg68
(lp1398
S'/admin/default/ticket/admin/186.32.48.60.2011-06-21.14-26-05.2aaeba7d-6008-49dc-a8c6-abb15b81a32d'
p1399
asbasbasbag61
(g77
g63
NtRp1400
(dp1401
g66
(dp1402
sg75
g852
sg68
(lp1403
g61
(g82
g63
NtRp1404
(dp1405
g66
(dp1406
g86
g87
ssg75
g1400
sg68
(lp1407
S'server_name'
p1408
asbag61
(g82
g63
NtRp1409
(dp1410
g66
(dp1411
g93
g94
ssg75
g1400
sg68
(lp1412
S':'
asbag61
(g82
g63
NtRp1413
(dp1414
g66
(dp1415
sg75
g1400
sg68
(lp1416
g61
(g62
g63
NtRp1417
(dp1418
g66
(dp1419
g74
I4
ssg75
g1413
sg68
(lp1420
S'a.xchg.com'
p1421
asbasbasbag61
(g77
g63
NtRp1422
(dp1423
g66
(dp1424
sg75
g852
sg68
(lp1425
g61
(g82
g63
NtRp1426
(dp1427
g66
(dp1428
g86
g87
ssg75
g1422
sg68
(lp1429
S'server_port'
p1430
asbag61
(g82
g63
NtRp1431
(dp1432
g66
(dp1433
g93
g94
ssg75
g1422
sg68
(lp1434
S':'
asbag61
(g82
g63
NtRp1435
(dp1436
g66
(dp1437
sg75
g1422
sg68
(lp1438
g61
(g62
g63
NtRp1439
(dp1440
g66
(dp1441
g74
I4
ssg75
g1435
sg68
(lp1442
S'443'
p1443
asbasbasbag61
(g77
g63
NtRp1444
(dp1445
g66
(dp1446
sg75
g852
sg68
(lp1447
g61
(g82
g63
NtRp1448
(dp1449
g66
(dp1450
g86
g87
ssg75
g1444
sg68
(lp1451
S'server_protocol'
p1452
asbag61
(g82
g63
NtRp1453
(dp1454
g66
(dp1455
g93
g94
ssg75
g1444
sg68
(lp1456
S':'
asbag61
(g82
g63
NtRp1457
(dp1458
g66
(dp1459
sg75
g1444
sg68
(lp1460
g61
(g62
g63
NtRp1461
(dp1462
g66
(dp1463
g74
I4
ssg75
g1457
sg68
(lp1464
S'HTTP/1.1'
p1465
asbasbasbag61
(g77
g63
NtRp1466
(dp1467
g66
(dp1468
sg75
g852
sg68
(lp1469
g61
(g82
g63
NtRp1470
(dp1471
g66
(dp1472
g86
g87
ssg75
g1466
sg68
(lp1473
S'uwsgi_version'
p1474
asbag61
(g82
g63
NtRp1475
(dp1476
g66
(dp1477
g93
g94
ssg75
g1466
sg68
(lp1478
S':'
asbag61
(g82
g63
NtRp1479
(dp1480
g66
(dp1481
sg75
g1466
sg68
(lp1482
g61
(g62
g63
NtRp1483
(dp1484
g66
(dp1485
g74
I4
ssg75
g1479
sg68
(lp1486
S'0.9.6.8'
p1487
asbasbasbag61
(g77
g63
NtRp1488
(dp1489
g66
(dp1490
sg75
g852
sg68
(lp1491
g61
(g82
g63
NtRp1492
(dp1493
g66
(dp1494
g86
g87
ssg75
g1488
sg68
(lp1495
S'web2py_path'
p1496
asbag61
(g82
g63
NtRp1497
(dp1498
g66
(dp1499
g93
g94
ssg75
g1488
sg68
(lp1500
S':'
asbag61
(g82
g63
NtRp1501
(dp1502
g66
(dp1503
sg75
g1488
sg68
(lp1504
g61
(g62
g63
NtRp1505
(dp1506
g66
(dp1507
g74
I4
ssg75
g1501
sg68
(lp1508
g899
asbasbasbag61
(g77
g63
NtRp1509
(dp1510
g66
(dp1511
sg75
g852
sg68
(lp1512
g61
(g82
g63
NtRp1513
(dp1514
g66
(dp1515
g86
g87
ssg75
g1509
sg68
(lp1516
S'web2py_version'
p1517
asbag61
(g82
g63
NtRp1518
(dp1519
g66
(dp1520
g93
g94
ssg75
g1509
sg68
(lp1521
S':'
asbag61
(g82
g63
NtRp1522
(dp1523
g66
(dp1524
sg75
g1509
sg68
(lp1525
g61
(g62
g63
NtRp1526
(dp1527
g66
(dp1528
g74
I4
ssg75
g1522
sg68
(lp1529
S'Version 1.96.4 (2011-06-15 22:09:34)\n'
p1530
asbasbasbag61
(g77
g63
NtRp1531
(dp1532
g66
(dp1533
sg75
g852
sg68
(lp1534
g61
(g82
g63
NtRp1535
(dp1536
g66
(dp1537
g86
g87
ssg75
g1531
sg68
(lp1538
S'wsgi_errors'
p1539
asbag61
(g82
g63
NtRp1540
(dp1541
g66
(dp1542
g93
g94
ssg75
g1531
sg68
(lp1543
S':'
asbag61
(g82
g63
NtRp1544
(dp1545
g66
(dp1546
sg75
g1531
sg68
(lp1547
g61
(g62
g63
NtRp1548
(dp1549
g66
(dp1550
g74
I4
ssg75
g1544
sg68
(lp1551
S"<open file 'wsgi_input', mode 'w' at 0xa648de0>"
p1552
asbasbasbag61
(g77
g63
NtRp1553
(dp1554
g66
(dp1555
sg75
g852
sg68
(lp1556
g61
(g82
g63
NtRp1557
(dp1558
g66
(dp1559
g86
g87
ssg75
g1553
sg68
(lp1560
S'wsgi_file_wrapper'
p1561
asbag61
(g82
g63
NtRp1562
(dp1563
g66
(dp1564
g93
g94
ssg75
g1553
sg68
(lp1565
S':'
asbag61
(g82
g63
NtRp1566
(dp1567
g66
(dp1568
sg75
g1553
sg68
(lp1569
g61
(g62
g63
NtRp1570
(dp1571
g66
(dp1572
g74
I4
ssg75
g1566
sg68
(lp1573
S'<built-in function uwsgi_sendfile>'
p1574
asbasbasbag61
(g77
g63
NtRp1575
(dp1576
g66
(dp1577
sg75
g852
sg68
(lp1578
g61
(g82
g63
NtRp1579
(dp1580
g66
(dp1581
g86
g87
ssg75
g1575
sg68
(lp1582
S'wsgi_input'
p1583
asbag61
(g82
g63
NtRp1584
(dp1585
g66
(dp1586
g93
g94
ssg75
g1575
sg68
(lp1587
S':'
asbag61
(g82
g63
NtRp1588
(dp1589
g66
(dp1590
sg75
g1575
sg68
(lp1591
g61
(g62
g63
NtRp1592
(dp1593
g66
(dp1594
g74
I4
ssg75
g1588
sg68
(lp1595
S"<open file 'wsgi_input', mode 'r' at 0xa648d88>"
p1596
asbasbasbag61
(g77
g63
NtRp1597
(dp1598
g66
(dp1599
sg75
g852
sg68
(lp1600
g61
(g82
g63
NtRp1601
(dp1602
g66
(dp1603
g86
g87
ssg75
g1597
sg68
(lp1604
S'wsgi_multiprocess'
p1605
asbag61
(g82
g63
NtRp1606
(dp1607
g66
(dp1608
g93
g94
ssg75
g1597
sg68
(lp1609
S':'
asbag61
(g82
g63
NtRp1610
(dp1611
g66
(dp1612
sg75
g1597
sg68
(lp1613
g61
(g62
g63
NtRp1614
(dp1615
g66
(dp1616
g74
I4
ssg75
g1610
sg68
(lp1617
g104
asbasbasbag61
(g77
g63
NtRp1618
(dp1619
g66
(dp1620
sg75
g852
sg68
(lp1621
g61
(g82
g63
NtRp1622
(dp1623
g66
(dp1624
g86
g87
ssg75
g1618
sg68
(lp1625
S'wsgi_multithread'
p1626
asbag61
(g82
g63
NtRp1627
(dp1628
g66
(dp1629
g93
g94
ssg75
g1618
sg68
(lp1630
S':'
asbag61
(g82
g63
NtRp1631
(dp1632
g66
(dp1633
sg75
g1618
sg68
(lp1634
g61
(g62
g63
NtRp1635
(dp1636
g66
(dp1637
g74
I4
ssg75
g1631
sg68
(lp1638
g104
asbasbasbag61
(g77
g63
NtRp1639
(dp1640
g66
(dp1641
sg75
g852
sg68
(lp1642
g61
(g82
g63
NtRp1643
(dp1644
g66
(dp1645
g86
g87
ssg75
g1639
sg68
(lp1646
S'wsgi_run_once'
p1647
asbag61
(g82
g63
NtRp1648
(dp1649
g66
(dp1650
g93
g94
ssg75
g1639
sg68
(lp1651
S':'
asbag61
(g82
g63
NtRp1652
(dp1653
g66
(dp1654
sg75
g1639
sg68
(lp1655
g61
(g62
g63
NtRp1656
(dp1657
g66
(dp1658
g74
I4
ssg75
g1652
sg68
(lp1659
g104
asbasbasbag61
(g77
g63
NtRp1660
(dp1661
g66
(dp1662
sg75
g852
sg68
(lp1663
g61
(g82
g63
NtRp1664
(dp1665
g66
(dp1666
g86
g87
ssg75
g1660
sg68
(lp1667
S'wsgi_url_scheme'
p1668
asbag61
(g82
g63
NtRp1669
(dp1670
g66
(dp1671
g93
g94
ssg75
g1660
sg68
(lp1672
S':'
asbag61
(g82
g63
NtRp1673
(dp1674
g66
(dp1675
sg75
g1660
sg68
(lp1676
g61
(g62
g63
NtRp1677
(dp1678
g66
(dp1679
g74
I4
ssg75
g1673
sg68
(lp1680
S'https'
p1681
asbasbasbag61
(g77
g63
NtRp1682
(dp1683
g66
(dp1684
sg75
g852
sg68
(lp1685
g61
(g82
g63
NtRp1686
(dp1687
g66
(dp1688
g86
g87
ssg75
g1682
sg68
(lp1689
S'wsgi_version'
p1690
asbag61
(g82
g63
NtRp1691
(dp1692
g66
(dp1693
g93
g94
ssg75
g1682
sg68
(lp1694
S':'
asbag61
(g82
g63
NtRp1695
(dp1696
g66
(dp1697
sg75
g1682
sg68
(lp1698
g61
(g62
g63
NtRp1699
(dp1700
g66
(dp1701
g74
I4
ssg75
g1695
sg68
(lp1702
g61
(g70
g63
NtRp1703
(dp1704
g66
(dp1705
g74
I3
ssg75
Nsg68
(lp1706
g61
(g77
g63
NtRp1707
(dp1708
g66
(dp1709
sg75
g1703
sg68
(lp1710
g61
(g82
g63
NtRp1711
(dp1712
g66
(dp1713
sg75
g1707
sg68
(lp1714
g61
(g62
g63
NtRp1715
(dp1716
g66
(dp1717
g74
I3
ssg75
g1711
sg68
(lp1718
S'1'
asbasbasbag61
(g77
g63
NtRp1719
(dp1720
g66
(dp1721
sg75
g1703
sg68
(lp1722
g61
(g82
g63
NtRp1723
(dp1724
g66
(dp1725
sg75
g1719
sg68
(lp1726
g61
(g62
g63
NtRp1727
(dp1728
g66
(dp1729
g74
I3
ssg75
g1723
sg68
(lp1730
S'0'
asbasbasbasbasbasbasbasbasbasbasbag61
(g77
g63
NtRp1731
(dp1732
g66
(dp1733
sg75
g71
sg68
(lp1734
g61
(g82
g63
NtRp1735
(dp1736
g66
(dp1737
g86
g87
ssg75
g1731
sg68
(lp1738
S'extension'
p1739
asbag61
(g82
g63
NtRp1740
(dp1741
g66
(dp1742
g93
g94
ssg75
g1731
sg68
(lp1743
S':'
asbag61
(g82
g63
NtRp1744
(dp1745
g66
(dp1746
sg75
g1731
sg68
(lp1747
g61
(g62
g63
NtRp1748
(dp1749
g66
(dp1750
g74
I5
ssg75
g1744
sg68
(lp1751
S'html'
p1752
asbasbasbag61
(g77
g63
NtRp1753
(dp1754
g66
(dp1755
sg75
g71
sg68
(lp1756
g61
(g82
g63
NtRp1757
(dp1758
g66
(dp1759
g86
g87
ssg75
g1753
sg68
(lp1760
S'folder'
p1761
asbag61
(g82
g63
NtRp1762
(dp1763
g66
(dp1764
g93
g94
ssg75
g1753
sg68
(lp1765
S':'
asbag61
(g82
g63
NtRp1766
(dp1767
g66
(dp1768
sg75
g1753
sg68
(lp1769
g61
(g62
g63
NtRp1770
(dp1771
g66
(dp1772
g74
I5
ssg75
g1766
sg68
(lp1773
S'/home/arvin/web2py/applications/admin/'
p1774
asbasbasbag61
(g77
g63
NtRp1775
(dp1776
g66
(dp1777
sg75
g71
sg68
(lp1778
g61
(g82
g63
NtRp1779
(dp1780
g66
(dp1781
g86
g87
ssg75
g1775
sg68
(lp1782
S'function'
p1783
asbag61
(g82
g63
NtRp1784
(dp1785
g66
(dp1786
g93
g94
ssg75
g1775
sg68
(lp1787
S':'
asbag61
(g82
g63
NtRp1788
(dp1789
g66
(dp1790
sg75
g1775
sg68
(lp1791
g61
(g62
g63
NtRp1792
(dp1793
g66
(dp1794
g74
I5
ssg75
g1788
sg68
(lp1795
S'ticket'
p1796
asbasbasbag61
(g77
g63
NtRp1797
(dp1798
g66
(dp1799
sg75
g71
sg68
(lp1800
g61
(g82
g63
NtRp1801
(dp1802
g66
(dp1803
g86
g87
ssg75
g1797
sg68
(lp1804
S'get_vars'
p1805
asbag61
(g82
g63
NtRp1806
(dp1807
g66
(dp1808
g93
g94
ssg75
g1797
sg68
(lp1809
S':'
asbag61
(g82
g63
NtRp1810
(dp1811
g66
(dp1812
sg75
g1797
sg68
(lp1813
g61
(g62
g63
NtRp1814
(dp1815
g66
(dp1816
g74
I5
ssg75
g1810
sg68
(lp1817
g61
(g70
g63
NtRp1818
(dp1819
g66
(dp1820
g74
I4
ssg75
Nsg68
(lp1821
sbasbasbasbag61
(g77
g63
NtRp1822
(dp1823
g66
(dp1824
sg75
g71
sg68
(lp1825
g61
(g82
g63
NtRp1826
(dp1827
g66
(dp1828
g86
g87
ssg75
g1822
sg68
(lp1829
S'is_https'
p1830
asbag61
(g82
g63
NtRp1831
(dp1832
g66
(dp1833
g93
g94
ssg75
g1822
sg68
(lp1834
S':'
asbag61
(g82
g63
NtRp1835
(dp1836
g66
(dp1837
sg75
g1822
sg68
(lp1838
g61
(g62
g63
NtRp1839
(dp1840
g66
(dp1841
g74
I5
ssg75
g1835
sg68
(lp1842
S'True'
p1843
asbasbasbag61
(g77
g63
NtRp1844
(dp1845
g66
(dp1846
sg75
g71
sg68
(lp1847
g61
(g82
g63
NtRp1848
(dp1849
g66
(dp1850
g86
g87
ssg75
g1844
sg68
(lp1851
S'is_local'
p1852
asbag61
(g82
g63
NtRp1853
(dp1854
g66
(dp1855
g93
g94
ssg75
g1844
sg68
(lp1856
S':'
asbag61
(g82
g63
NtRp1857
(dp1858
g66
(dp1859
sg75
g1844
sg68
(lp1860
g61
(g62
g63
NtRp1861
(dp1862
g66
(dp1863
g74
I5
ssg75
g1857
sg68
(lp1864
g104
asbasbasbag61
(g77
g63
NtRp1865
(dp1866
g66
(dp1867
sg75
g71
sg68
(lp1868
g61
(g82
g63
NtRp1869
(dp1870
g66
(dp1871
g86
g87
ssg75
g1865
sg68
(lp1872
S'is_restful'
p1873
asbag61
(g82
g63
NtRp1874
(dp1875
g66
(dp1876
g93
g94
ssg75
g1865
sg68
(lp1877
S':'
asbag61
(g82
g63
NtRp1878
(dp1879
g66
(dp1880
sg75
g1865
sg68
(lp1881
g61
(g62
g63
NtRp1882
(dp1883
g66
(dp1884
g74
I5
ssg75
g1878
sg68
(lp1885
g104
asbasbasbag61
(g77
g63
NtRp1886
(dp1887
g66
(dp1888
sg75
g71
sg68
(lp1889
g61
(g82
g63
NtRp1890
(dp1891
g66
(dp1892
g86
g87
ssg75
g1886
sg68
(lp1893
S'now'
p1894
asbag61
(g82
g63
NtRp1895
(dp1896
g66
(dp1897
g93
g94
ssg75
g1886
sg68
(lp1898
S':'
asbag61
(g82
g63
NtRp1899
(dp1900
g66
(dp1901
sg75
g1886
sg68
(lp1902
g61
(g62
g63
NtRp1903
(dp1904
g66
(dp1905
g74
I5
ssg75
g1899
sg68
(lp1906
S'datetime.datetime(2011, 6, 21, 14, 26, 6, 859226)'
p1907
asbasbasbag61
(g77
g63
NtRp1908
(dp1909
g66
(dp1910
sg75
g71
sg68
(lp1911
g61
(g82
g63
NtRp1912
(dp1913
g66
(dp1914
g86
g87
ssg75
g1908
sg68
(lp1915
S'post_vars'
p1916
asbag61
(g82
g63
NtRp1917
(dp1918
g66
(dp1919
g93
g94
ssg75
g1908
sg68
(lp1920
S':'
asbag61
(g82
g63
NtRp1921
(dp1922
g66
(dp1923
sg75
g1908
sg68
(lp1924
g61
(g62
g63
NtRp1925
(dp1926
g66
(dp1927
g74
I5
ssg75
g1921
sg68
(lp1928
g61
(g70
g63
NtRp1929
(dp1930
g66
(dp1931
g74
I4
ssg75
Nsg68
(lp1932
sbasbasbasbag61
(g77
g63
NtRp1933
(dp1934
g66
(dp1935
sg75
g71
sg68
(lp1936
g61
(g82
g63
NtRp1937
(dp1938
g66
(dp1939
g86
g87
ssg75
g1933
sg68
(lp1940
S'raw_args'
p1941
asbag61
(g82
g63
NtRp1942
(dp1943
g66
(dp1944
g93
g94
ssg75
g1933
sg68
(lp1945
S':'
asbag61
(g82
g63
NtRp1946
(dp1947
g66
(dp1948
sg75
g1933
sg68
(lp1949
g61
(g62
g63
NtRp1950
(dp1951
g66
(dp1952
g74
I5
ssg75
g1946
sg68
(lp1953
S'admin/186.32.48.60.2011-06-21.14-26-05.2aaeba7d-6008-49dc-a8c6-abb15b81a32d'
p1954
asbasbasbag61
(g77
g63
NtRp1955
(dp1956
g66
(dp1957
sg75
g71
sg68
(lp1958
g61
(g82
g63
NtRp1959
(dp1960
g66
(dp1961
g86
g87
ssg75
g1955
sg68
(lp1962
S'url'
p1963
asbag61
(g82
g63
NtRp1964
(dp1965
g66
(dp1966
g93
g94
ssg75
g1955
sg68
(lp1967
S':'
asbag61
(g82
g63
NtRp1968
(dp1969
g66
(dp1970
sg75
g1955
sg68
(lp1971
g61
(g62
g63
NtRp1972
(dp1973
g66
(dp1974
g74
I5
ssg75
g1968
sg68
(lp1975
S'/admin/default/ticket/admin/186.32.48.60.2011-06-21.14-26-05.2aaeba7d-6008-49dc-a8c6-abb15b81a32d'
p1976
asbasbasbag61
(g77
g63
NtRp1977
(dp1978
g66
(dp1979
sg75
g71
sg68
(lp1980
g61
(g82
g63
NtRp1981
(dp1982
g66
(dp1983
g86
g87
ssg75
g1977
sg68
(lp1984
S'uuid'
p1985
asbag61
(g82
g63
NtRp1986
(dp1987
g66
(dp1988
g93
g94
ssg75
g1977
sg68
(lp1989
S':'
asbag61
(g82
g63
NtRp1990
(dp1991
g66
(dp1992
sg75
g1977
sg68
(lp1993
g61
(g62
g63
NtRp1994
(dp1995
g66
(dp1996
g74
I5
ssg75
g1990
sg68
(lp1997
S'admin/186.32.48.60.2011-06-21.14-26-06.b36fcbfd-cc9b-4452-b6a8-9d368845a518'
p1998
asbasbasbag61
(g77
g63
NtRp1999
(dp2000
g66
(dp2001
sg75
g71
sg68
(lp2002
g61
(g82
g63
NtRp2003
(dp2004
g66
(dp2005
g86
g87
ssg75
g1999
sg68
(lp2006
S'vars'
p2007
asbag61
(g82
g63
NtRp2008
(dp2009
g66
(dp2010
g93
g94
ssg75
g1999
sg68
(lp2011
S':'
asbag61
(g82
g63
NtRp2012
(dp2013
g66
(dp2014
sg75
g1999
sg68
(lp2015
g61
(g62
g63
NtRp2016
(dp2017
g66
(dp2018
g74
I5
ssg75
g2012
sg68
(lp2019
g61
(g70
g63
NtRp2020
(dp2021
g66
(dp2022
g74
I4
ssg75
Nsg68
(lp2023
sbasbasbasbag61
(g77
g63
NtRp2024
(dp2025
g66
(dp2026
sg75
g71
sg68
(lp2027
g61
(g82
g63
NtRp2028
(dp2029
g66
(dp2030
g86
g87
ssg75
g2024
sg68
(lp2031
S'wsgi'
p2032
asbag61
(g82
g63
NtRp2033
(dp2034
g66
(dp2035
g93
g94
ssg75
g2024
sg68
(lp2036
S':'
asbag61
(g82
g63
NtRp2037
(dp2038
g66
(dp2039
sg75
g2024
sg68
(lp2040
g61
(g62
g63
NtRp2041
(dp2042
g66
(dp2043
g74
I5
ssg75
g2037
sg68
(lp2044
g61
(g70
g63
NtRp2045
(dp2046
g66
(dp2047
g74
I4
ssg75
Nsg68
(lp2048
g61
(g77
g63
NtRp2049
(dp2050
g66
(dp2051
sg75
g2045
sg68
(lp2052
g61
(g82
g63
NtRp2053
(dp2054
g66
(dp2055
g86
g87
ssg75
g2049
sg68
(lp2056
S'environ'
p2057
asbag61
(g82
g63
NtRp2058
(dp2059
g66
(dp2060
g93
g94
ssg75
g2049
sg68
(lp2061
S':'
asbag61
(g82
g63
NtRp2062
(dp2063
g66
(dp2064
sg75
g2049
sg68
(lp2065
g61
(g62
g63
NtRp2066
(dp2067
g66
(dp2068
g74
I4
ssg75
g2062
sg68
(lp2069
g61
(g70
g63
NtRp2070
(dp2071
g66
(dp2072
g74
I3
ssg75
Nsg68
(lp2073
g61
(g77
g63
NtRp2074
(dp2075
g66
(dp2076
sg75
g2070
sg68
(lp2077
g61
(g82
g63
NtRp2078
(dp2079
g66
(dp2080
g86
g87
ssg75
g2074
sg68
(lp2081
S'CONTENT_LENGTH'
p2082
asbag61
(g82
g63
NtRp2083
(dp2084
g66
(dp2085
g93
g94
ssg75
g2074
sg68
(lp2086
S':'
asbag61
(g82
g63
NtRp2087
(dp2088
g66
(dp2089
sg75
g2074
sg68
(lp2090
g61
(g62
g63
NtRp2091
(dp2092
g66
(dp2093
g74
I3
ssg75
g2087
sg68
(lp2094
S''
asbasbasbag61
(g77
g63
NtRp2095
(dp2096
g66
(dp2097
sg75
g2070
sg68
(lp2098
g61
(g82
g63
NtRp2099
(dp2100
g66
(dp2101
g86
g87
ssg75
g2095
sg68
(lp2102
S'CONTENT_TYPE'
p2103
asbag61
(g82
g63
NtRp2104
(dp2105
g66
(dp2106
g93
g94
ssg75
g2095
sg68
(lp2107
S':'
asbag61
(g82
g63
NtRp2108
(dp2109
g66
(dp2110
sg75
g2095
sg68
(lp2111
g61
(g62
g63
NtRp2112
(dp2113
g66
(dp2114
g74
I3
ssg75
g2108
sg68
(lp2115
S''
asbasbasbag61
(g77
g63
NtRp2116
(dp2117
g66
(dp2118
sg75
g2070
sg68
(lp2119
g61
(g82
g63
NtRp2120
(dp2121
g66
(dp2122
g86
g87
ssg75
g2116
sg68
(lp2123
S'DOCUMENT_ROOT'
p2124
asbag61
(g82
g63
NtRp2125
(dp2126
g66
(dp2127
g93
g94
ssg75
g2116
sg68
(lp2128
S':'
asbag61
(g82
g63
NtRp2129
(dp2130
g66
(dp2131
sg75
g2116
sg68
(lp2132
g61
(g62
g63
NtRp2133
(dp2134
g66
(dp2135
g74
I3
ssg75
g2129
sg68
(lp2136
g1006
asbasbasbag61
(g77
g63
NtRp2137
(dp2138
g66
(dp2139
sg75
g2070
sg68
(lp2140
g61
(g82
g63
NtRp2141
(dp2142
g66
(dp2143
g86
g87
ssg75
g2137
sg68
(lp2144
S'HTTPS'
p2145
asbag61
(g82
g63
NtRp2146
(dp2147
g66
(dp2148
g93
g94
ssg75
g2137
sg68
(lp2149
S':'
asbag61
(g82
g63
NtRp2150
(dp2151
g66
(dp2152
sg75
g2137
sg68
(lp2153
g61
(g62
g63
NtRp2154
(dp2155
g66
(dp2156
g74
I3
ssg75
g2150
sg68
(lp2157
g1269
asbasbasbag61
(g77
g63
NtRp2158
(dp2159
g66
(dp2160
sg75
g2070
sg68
(lp2161
g61
(g82
g63
NtRp2162
(dp2163
g66
(dp2164
g86
g87
ssg75
g2158
sg68
(lp2165
S'HTTP_ACCEPT'
p2166
asbag61
(g82
g63
NtRp2167
(dp2168
g66
(dp2169
g93
g94
ssg75
g2158
sg68
(lp2170
S':'
asbag61
(g82
g63
NtRp2171
(dp2172
g66
(dp2173
sg75
g2158
sg68
(lp2174
g61
(g62
g63
NtRp2175
(dp2176
g66
(dp2177
g74
I3
ssg75
g2171
sg68
(lp2178
g1049
asbasbasbag61
(g77
g63
NtRp2179
(dp2180
g66
(dp2181
sg75
g2070
sg68
(lp2182
g61
(g82
g63
NtRp2183
(dp2184
g66
(dp2185
g86
g87
ssg75
g2179
sg68
(lp2186
S'HTTP_ACCEPT_CHARSET'
p2187
asbag61
(g82
g63
NtRp2188
(dp2189
g66
(dp2190
g93
g94
ssg75
g2179
sg68
(lp2191
S':'
asbag61
(g82
g63
NtRp2192
(dp2193
g66
(dp2194
sg75
g2179
sg68
(lp2195
g61
(g62
g63
NtRp2196
(dp2197
g66
(dp2198
g74
I3
ssg75
g2192
sg68
(lp2199
g1071
asbasbasbag61
(g77
g63
NtRp2200
(dp2201
g66
(dp2202
sg75
g2070
sg68
(lp2203
g61
(g82
g63
NtRp2204
(dp2205
g66
(dp2206
g86
g87
ssg75
g2200
sg68
(lp2207
S'HTTP_ACCEPT_ENCODING'
p2208
asbag61
(g82
g63
NtRp2209
(dp2210
g66
(dp2211
g93
g94
ssg75
g2200
sg68
(lp2212
S':'
asbag61
(g82
g63
NtRp2213
(dp2214
g66
(dp2215
sg75
g2200
sg68
(lp2216
g61
(g62
g63
NtRp2217
(dp2218
g66
(dp2219
g74
I3
ssg75
g2213
sg68
(lp2220
g1093
asbasbasbag61
(g77
g63
NtRp2221
(dp2222
g66
(dp2223
sg75
g2070
sg68
(lp2224
g61
(g82
g63
NtRp2225
(dp2226
g66
(dp2227
g86
g87
ssg75
g2221
sg68
(lp2228
S'HTTP_ACCEPT_LANGUAGE'
p2229
asbag61
(g82
g63
NtRp2230
(dp2231
g66
(dp2232
g93
g94
ssg75
g2221
sg68
(lp2233
S':'
asbag61
(g82
g63
NtRp2234
(dp2235
g66
(dp2236
sg75
g2221
sg68
(lp2237
g61
(g62
g63
NtRp2238
(dp2239
g66
(dp2240
g74
I3
ssg75
g2234
sg68
(lp2241
g1115
asbasbasbag61
(g77
g63
NtRp2242
(dp2243
g66
(dp2244
sg75
g2070
sg68
(lp2245
g61
(g82
g63
NtRp2246
(dp2247
g66
(dp2248
g86
g87
ssg75
g2242
sg68
(lp2249
S'HTTP_CONNECTION'
p2250
asbag61
(g82
g63
NtRp2251
(dp2252
g66
(dp2253
g93
g94
ssg75
g2242
sg68
(lp2254
S':'
asbag61
(g82
g63
NtRp2255
(dp2256
g66
(dp2257
sg75
g2242
sg68
(lp2258
g61
(g62
g63
NtRp2259
(dp2260
g66
(dp2261
g74
I3
ssg75
g2255
sg68
(lp2262
g1137
asbasbasbag61
(g77
g63
NtRp2263
(dp2264
g66
(dp2265
sg75
g2070
sg68
(lp2266
g61
(g82
g63
NtRp2267
(dp2268
g66
(dp2269
g86
g87
ssg75
g2263
sg68
(lp2270
S'HTTP_COOKIE'
p2271
asbag61
(g82
g63
NtRp2272
(dp2273
g66
(dp2274
g93
g94
ssg75
g2263
sg68
(lp2275
S':'
asbag61
(g82
g63
NtRp2276
(dp2277
g66
(dp2278
sg75
g2263
sg68
(lp2279
g61
(g62
g63
NtRp2280
(dp2281
g66
(dp2282
g74
I3
ssg75
g2276
sg68
(lp2283
g1159
asbasbasbag61
(g77
g63
NtRp2284
(dp2285
g66
(dp2286
sg75
g2070
sg68
(lp2287
g61
(g82
g63
NtRp2288
(dp2289
g66
(dp2290
g86
g87
ssg75
g2284
sg68
(lp2291
S'HTTP_HOST'
p2292
asbag61
(g82
g63
NtRp2293
(dp2294
g66
(dp2295
g93
g94
ssg75
g2284
sg68
(lp2296
S':'
asbag61
(g82
g63
NtRp2297
(dp2298
g66
(dp2299
sg75
g2284
sg68
(lp2300
g61
(g62
g63
NtRp2301
(dp2302
g66
(dp2303
g74
I3
ssg75
g2297
sg68
(lp2304
g1181
asbasbasbag61
(g77
g63
NtRp2305
(dp2306
g66
(dp2307
sg75
g2070
sg68
(lp2308
g61
(g82
g63
NtRp2309
(dp2310
g66
(dp2311
g86
g87
ssg75
g2305
sg68
(lp2312
S'HTTP_KEEP_ALIVE'
p2313
asbag61
(g82
g63
NtRp2314
(dp2315
g66
(dp2316
g93
g94
ssg75
g2305
sg68
(lp2317
S':'
asbag61
(g82
g63
NtRp2318
(dp2319
g66
(dp2320
sg75
g2305
sg68
(lp2321
g61
(g62
g63
NtRp2322
(dp2323
g66
(dp2324
g74
I3
ssg75
g2318
sg68
(lp2325
g1203
asbasbasbag61
(g77
g63
NtRp2326
(dp2327
g66
(dp2328
sg75
g2070
sg68
(lp2329
g61
(g82
g63
NtRp2330
(dp2331
g66
(dp2332
g86
g87
ssg75
g2326
sg68
(lp2333
S'HTTP_REFERER'
p2334
asbag61
(g82
g63
NtRp2335
(dp2336
g66
(dp2337
g93
g94
ssg75
g2326
sg68
(lp2338
S':'
asbag61
(g82
g63
NtRp2339
(dp2340
g66
(dp2341
sg75
g2326
sg68
(lp2342
g61
(g62
g63
NtRp2343
(dp2344
g66
(dp2345
g74
I3
ssg75
g2339
sg68
(lp2346
g1225
asbasbasbag61
(g77
g63
NtRp2347
(dp2348
g66
(dp2349
sg75
g2070
sg68
(lp2350
g61
(g82
g63
NtRp2351
(dp2352
g66
(dp2353
g86
g87
ssg75
g2347
sg68
(lp2354
S'HTTP_USER_AGENT'
p2355
asbag61
(g82
g63
NtRp2356
(dp2357
g66
(dp2358
g93
g94
ssg75
g2347
sg68
(lp2359
S':'
asbag61
(g82
g63
NtRp2360
(dp2361
g66
(dp2362
sg75
g2347
sg68
(lp2363
g61
(g62
g63
NtRp2364
(dp2365
g66
(dp2366
g74
I3
ssg75
g2360
sg68
(lp2367
g1247
asbasbasbag61
(g77
g63
NtRp2368
(dp2369
g66
(dp2370
sg75
g2070
sg68
(lp2371
g61
(g82
g63
NtRp2372
(dp2373
g66
(dp2374
g86
g87
ssg75
g2368
sg68
(lp2375
S'PATH_INFO'
p2376
asbag61
(g82
g63
NtRp2377
(dp2378
g66
(dp2379
g93
g94
ssg75
g2368
sg68
(lp2380
S':'
asbag61
(g82
g63
NtRp2381
(dp2382
g66
(dp2383
sg75
g2368
sg68
(lp2384
g61
(g62
g63
NtRp2385
(dp2386
g66
(dp2387
g74
I3
ssg75
g2381
sg68
(lp2388
g1291
asbasbasbag61
(g77
g63
NtRp2389
(dp2390
g66
(dp2391
sg75
g2070
sg68
(lp2392
g61
(g82
g63
NtRp2393
(dp2394
g66
(dp2395
g86
g87
ssg75
g2389
sg68
(lp2396
S'QUERY_STRING'
p2397
asbag61
(g82
g63
NtRp2398
(dp2399
g66
(dp2400
g93
g94
ssg75
g2389
sg68
(lp2401
S':'
asbag61
(g82
g63
NtRp2402
(dp2403
g66
(dp2404
sg75
g2389
sg68
(lp2405
g61
(g62
g63
NtRp2406
(dp2407
g66
(dp2408
g74
I3
ssg75
g2402
sg68
(lp2409
S''
asbasbasbag61
(g77
g63
NtRp2410
(dp2411
g66
(dp2412
sg75
g2070
sg68
(lp2413
g61
(g82
g63
NtRp2414
(dp2415
g66
(dp2416
g86
g87
ssg75
g2410
sg68
(lp2417
S'REMOTE_ADDR'
p2418
asbag61
(g82
g63
NtRp2419
(dp2420
g66
(dp2421
g93
g94
ssg75
g2410
sg68
(lp2422
S':'
asbag61
(g82
g63
NtRp2423
(dp2424
g66
(dp2425
sg75
g2410
sg68
(lp2426
g61
(g62
g63
NtRp2427
(dp2428
g66
(dp2429
g74
I3
ssg75
g2423
sg68
(lp2430
g220
asbasbasbag61
(g77
g63
NtRp2431
(dp2432
g66
(dp2433
sg75
g2070
sg68
(lp2434
g61
(g82
g63
NtRp2435
(dp2436
g66
(dp2437
g86
g87
ssg75
g2431
sg68
(lp2438
S'REMOTE_PORT'
p2439
asbag61
(g82
g63
NtRp2440
(dp2441
g66
(dp2442
g93
g94
ssg75
g2431
sg68
(lp2443
S':'
asbag61
(g82
g63
NtRp2444
(dp2445
g66
(dp2446
sg75
g2431
sg68
(lp2447
g61
(g62
g63
NtRp2448
(dp2449
g66
(dp2450
g74
I3
ssg75
g2444
sg68
(lp2451
g1355
asbasbasbag61
(g77
g63
NtRp2452
(dp2453
g66
(dp2454
sg75
g2070
sg68
(lp2455
g61
(g82
g63
NtRp2456
(dp2457
g66
(dp2458
g86
g87
ssg75
g2452
sg68
(lp2459
S'REQUEST_METHOD'
p2460
asbag61
(g82
g63
NtRp2461
(dp2462
g66
(dp2463
g93
g94
ssg75
g2452
sg68
(lp2464
S':'
asbag61
(g82
g63
NtRp2465
(dp2466
g66
(dp2467
sg75
g2452
sg68
(lp2468
g61
(g62
g63
NtRp2469
(dp2470
g66
(dp2471
g74
I3
ssg75
g2465
sg68
(lp2472
g1377
asbasbasbag61
(g77
g63
NtRp2473
(dp2474
g66
(dp2475
sg75
g2070
sg68
(lp2476
g61
(g82
g63
NtRp2477
(dp2478
g66
(dp2479
g86
g87
ssg75
g2473
sg68
(lp2480
S'REQUEST_URI'
p2481
asbag61
(g82
g63
NtRp2482
(dp2483
g66
(dp2484
g93
g94
ssg75
g2473
sg68
(lp2485
S':'
asbag61
(g82
g63
NtRp2486
(dp2487
g66
(dp2488
sg75
g2473
sg68
(lp2489
g61
(g62
g63
NtRp2490
(dp2491
g66
(dp2492
g74
I3
ssg75
g2486
sg68
(lp2493
g1399
asbasbasbag61
(g77
g63
NtRp2494
(dp2495
g66
(dp2496
sg75
g2070
sg68
(lp2497
g61
(g82
g63
NtRp2498
(dp2499
g66
(dp2500
g86
g87
ssg75
g2494
sg68
(lp2501
S'SERVER_NAME'
p2502
asbag61
(g82
g63
NtRp2503
(dp2504
g66
(dp2505
g93
g94
ssg75
g2494
sg68
(lp2506
S':'
asbag61
(g82
g63
NtRp2507
(dp2508
g66
(dp2509
sg75
g2494
sg68
(lp2510
g61
(g62
g63
NtRp2511
(dp2512
g66
(dp2513
g74
I3
ssg75
g2507
sg68
(lp2514
g1421
asbasbasbag61
(g77
g63
NtRp2515
(dp2516
g66
(dp2517
sg75
g2070
sg68
(lp2518
g61
(g82
g63
NtRp2519
(dp2520
g66
(dp2521
g86
g87
ssg75
g2515
sg68
(lp2522
S'SERVER_PORT'
p2523
asbag61
(g82
g63
NtRp2524
(dp2525
g66
(dp2526
g93
g94
ssg75
g2515
sg68
(lp2527
S':'
asbag61
(g82
g63
NtRp2528
(dp2529
g66
(dp2530
sg75
g2515
sg68
(lp2531
g61
(g62
g63
NtRp2532
(dp2533
g66
(dp2534
g74
I3
ssg75
g2528
sg68
(lp2535
g1443
asbasbasbag61
(g77
g63
NtRp2536
(dp2537
g66
(dp2538
sg75
g2070
sg68
(lp2539
g61
(g82
g63
NtRp2540
(dp2541
g66
(dp2542
g86
g87
ssg75
g2536
sg68
(lp2543
S'SERVER_PROTOCOL'
p2544
asbag61
(g82
g63
NtRp2545
(dp2546
g66
(dp2547
g93
g94
ssg75
g2536
sg68
(lp2548
S':'
asbag61
(g82
g63
NtRp2549
(dp2550
g66
(dp2551
sg75
g2536
sg68
(lp2552
g61
(g62
g63
NtRp2553
(dp2554
g66
(dp2555
g74
I3
ssg75
g2549
sg68
(lp2556
g1465
asbasbasbag61
(g77
g63
NtRp2557
(dp2558
g66
(dp2559
sg75
g2070
sg68
(lp2560
g61
(g82
g63
NtRp2561
(dp2562
g66
(dp2563
g86
g87
ssg75
g2557
sg68
(lp2564
S'uwsgi.version'
p2565
asbag61
(g82
g63
NtRp2566
(dp2567
g66
(dp2568
g93
g94
ssg75
g2557
sg68
(lp2569
S':'
asbag61
(g82
g63
NtRp2570
(dp2571
g66
(dp2572
sg75
g2557
sg68
(lp2573
g61
(g62
g63
NtRp2574
(dp2575
g66
(dp2576
g74
I3
ssg75
g2570
sg68
(lp2577
g1487
asbasbasbag61
(g77
g63
NtRp2578
(dp2579
g66
(dp2580
sg75
g2070
sg68
(lp2581
g61
(g82
g63
NtRp2582
(dp2583
g66
(dp2584
g86
g87
ssg75
g2578
sg68
(lp2585
S'wsgi.errors'
p2586
asbag61
(g82
g63
NtRp2587
(dp2588
g66
(dp2589
g93
g94
ssg75
g2578
sg68
(lp2590
S':'
asbag61
(g82
g63
NtRp2591
(dp2592
g66
(dp2593
sg75
g2578
sg68
(lp2594
g61
(g62
g63
NtRp2595
(dp2596
g66
(dp2597
g74
I3
ssg75
g2591
sg68
(lp2598
S"<open file 'wsgi_input', mode 'w' at 0xa648de0>"
p2599
asbasbasbag61
(g77
g63
NtRp2600
(dp2601
g66
(dp2602
sg75
g2070
sg68
(lp2603
g61
(g82
g63
NtRp2604
(dp2605
g66
(dp2606
g86
g87
ssg75
g2600
sg68
(lp2607
S'wsgi.file_wrapper'
p2608
asbag61
(g82
g63
NtRp2609
(dp2610
g66
(dp2611
g93
g94
ssg75
g2600
sg68
(lp2612
S':'
asbag61
(g82
g63
NtRp2613
(dp2614
g66
(dp2615
sg75
g2600
sg68
(lp2616
g61
(g62
g63
NtRp2617
(dp2618
g66
(dp2619
g74
I3
ssg75
g2613
sg68
(lp2620
S'<built-in function uwsgi_sendfile>'
p2621
asbasbasbag61
(g77
g63
NtRp2622
(dp2623
g66
(dp2624
sg75
g2070
sg68
(lp2625
g61
(g82
g63
NtRp2626
(dp2627
g66
(dp2628
g86
g87
ssg75
g2622
sg68
(lp2629
S'wsgi.input'
p2630
asbag61
(g82
g63
NtRp2631
(dp2632
g66
(dp2633
g93
g94
ssg75
g2622
sg68
(lp2634
S':'
asbag61
(g82
g63
NtRp2635
(dp2636
g66
(dp2637
sg75
g2622
sg68
(lp2638
g61
(g62
g63
NtRp2639
(dp2640
g66
(dp2641
g74
I3
ssg75
g2635
sg68
(lp2642
S'<cStringIO.StringO object at 0xa68a6a0>'
p2643
asbasbasbag61
(g77
g63
NtRp2644
(dp2645
g66
(dp2646
sg75
g2070
sg68
(lp2647
g61
(g82
g63
NtRp2648
(dp2649
g66
(dp2650
g86
g87
ssg75
g2644
sg68
(lp2651
S'wsgi.multiprocess'
p2652
asbag61
(g82
g63
NtRp2653
(dp2654
g66
(dp2655
g93
g94
ssg75
g2644
sg68
(lp2656
S':'
asbag61
(g82
g63
NtRp2657
(dp2658
g66
(dp2659
sg75
g2644
sg68
(lp2660
g61
(g62
g63
NtRp2661
(dp2662
g66
(dp2663
g74
I3
ssg75
g2657
sg68
(lp2664
g104
asbasbasbag61
(g77
g63
NtRp2665
(dp2666
g66
(dp2667
sg75
g2070
sg68
(lp2668
g61
(g82
g63
NtRp2669
(dp2670
g66
(dp2671
g86
g87
ssg75
g2665
sg68
(lp2672
S'wsgi.multithread'
p2673
asbag61
(g82
g63
NtRp2674
(dp2675
g66
(dp2676
g93
g94
ssg75
g2665
sg68
(lp2677
S':'
asbag61
(g82
g63
NtRp2678
(dp2679
g66
(dp2680
sg75
g2665
sg68
(lp2681
g61
(g62
g63
NtRp2682
(dp2683
g66
(dp2684
g74
I3
ssg75
g2678
sg68
(lp2685
g104
asbasbasbag61
(g77
g63
NtRp2686
(dp2687
g66
(dp2688
sg75
g2070
sg68
(lp2689
g61
(g82
g63
NtRp2690
(dp2691
g66
(dp2692
g86
g87
ssg75
g2686
sg68
(lp2693
S'wsgi.run_once'
p2694
asbag61
(g82
g63
NtRp2695
(dp2696
g66
(dp2697
g93
g94
ssg75
g2686
sg68
(lp2698
S':'
asbag61
(g82
g63
NtRp2699
(dp2700
g66
(dp2701
sg75
g2686
sg68
(lp2702
g61
(g62
g63
NtRp2703
(dp2704
g66
(dp2705
g74
I3
ssg75
g2699
sg68
(lp2706
g104
asbasbasbag61
(g77
g63
NtRp2707
(dp2708
g66
(dp2709
sg75
g2070
sg68
(lp2710
g61
(g82
g63
NtRp2711
(dp2712
g66
(dp2713
g86
g87
ssg75
g2707
sg68
(lp2714
S'wsgi.url_scheme'
p2715
asbag61
(g82
g63
NtRp2716
(dp2717
g66
(dp2718
g93
g94
ssg75
g2707
sg68
(lp2719
S':'
asbag61
(g82
g63
NtRp2720
(dp2721
g66
(dp2722
sg75
g2707
sg68
(lp2723
g61
(g62
g63
NtRp2724
(dp2725
g66
(dp2726
g74
I3
ssg75
g2720
sg68
(lp2727
g1681
asbasbasbag61
(g77
g63
NtRp2728
(dp2729
g66
(dp2730
sg75
g2070
sg68
(lp2731
g61
(g82
g63
NtRp2732
(dp2733
g66
(dp2734
g86
g87
ssg75
g2728
sg68
(lp2735
S'wsgi.version'
p2736
asbag61
(g82
g63
NtRp2737
(dp2738
g66
(dp2739
g93
g94
ssg75
g2728
sg68
(lp2740
S':'
asbag61
(g82
g63
NtRp2741
(dp2742
g66
(dp2743
sg75
g2728
sg68
(lp2744
g61
(g62
g63
NtRp2745
(dp2746
g66
(dp2747
g74
I3
ssg75
g2741
sg68
(lp2748
S'1'
asbasbasbasbasbasbasbasbasbasbasbasbasbsS'frames'
p2749
(lp2750
(dp2751
S'file'
p2752
S'/home/arvin/web2py/gluon/main.py'
p2753
sS'dump'
p2754
(dp2755
S'global serve_controller'
p2756
S'<function serve_controller>'
p2757
sS'session'
p2758
S"<Storage {'check_version': False, '_Session__has...'last_time': 1308687783.409865, '_secure': True}>"
p2759
sS'request'
p2760
S"<Storage {'body': <cStringIO.StringO object at 0..._vars': <Storage {}>, 'post_vars': <Storage {}>}>"
p2761
sS'response'
p2762
S"<Storage {'status': 200, 'body': <cStringIO.Stri...ssion_id_name': 'session_id_admin', 'files': []}>"
p2763
ssS'lnum'
p2764
I485
sS'lines'
p2765
(dp2766
I480
S''
sI481
S'                # ##################################################'
p2767
sI482
S'                # run controller'
p2768
sI483
S'                # ##################################################'
p2769
sI484
S''
sI485
S'                serve_controller(request, response, session)'
p2770
sI486
S''
sI487
S'            except HTTP, http_response:'
p2771
sI488
S'                if static_file:'
p2772
sI489
S'                    return http_response.to(responder)'
p2773
ssS'call'
p2774
S"(environ={'CONTENT_LENGTH': '', 'CONTENT_TYPE': '', 'DOCUMENT_ROOT': '/usr/local/nginx/html', 'HTTPS': 'on', 'HTTP_ACCEPT': 'text/html,application/xhtml+xml,application/xml;q=0.9,*/*;q=0.8', 'HTTP_ACCEPT_CHARSET': 'ISO-8859-1,utf-8;q=0.7,*;q=0.7', 'HTTP_ACCEPT_ENCODING': 'gzip, deflate', 'HTTP_ACCEPT_LANGUAGE': 'en-us,en;q=0.5', 'HTTP_CONNECTION': 'keep-alive', 'HTTP_COOKIE': '__utma=159863860.1937463137.1307715134.130859850...186.32.48.60-9dd50004-3126-421e-8ced-491be3f5cbaa', ...}, responder=<built-in function uwsgi_spit>)"
p2775
sS'func'
p2776
S'wsgibase'
p2777
sa(dp2778
g2752
S'/home/arvin/web2py/gluon/main.py'
p2779
sg2754
(dp2780
S'environment'
p2781
S'undefined'
p2782
sS'session'
p2783
S"<Storage {'check_version': False, '_Session__has...'last_time': 1308687783.409865, '_secure': True}>"
p2784
sS'request'
p2785
S"<Storage {'body': <cStringIO.StringO object at 0..._vars': <Storage {}>, 'post_vars': <Storage {}>}>"
p2786
sS'response'
p2787
S"<Storage {'status': 200, 'body': <cStringIO.Stri...ssion_id_name': 'session_id_admin', 'files': []}>"
p2788
sS'global build_environment'
p2789
S'<function build_environment>'
p2790
ssg2764
I188
sg2765
(dp2791
I192
S"    response.view = '%s/%s.%s' % (request.controller,"
p2792
sI183
S''
sI184
S'    # ##################################################'
p2793
sI185
S'    # build environment for controller and view'
p2794
sI186
S'    # ##################################################'
p2795
sI187
S''
sI188
S'    environment = build_environment(request, response, session)'
p2796
sI189
S''
sI190
S'    # set default view, controller can override it'
p2797
sI191
S''
ssg2774
S"(request=<Storage {'body': <cStringIO.StringO object at 0..._vars': <Storage {}>, 'post_vars': <Storage {}>}>, response=<Storage {'status': 200, 'body': <cStringIO.Stri...ssion_id_name': 'session_id_admin', 'files': []}>, session=<Storage {'check_version': False, '_Session__has...'last_time': 1308687783.409865, '_secure': True}>)"
p2798
sg2776
S'serve_controller'
p2799
sa(dp2800
g2752
S'/home/arvin/web2py/gluon/compileapp.py'
p2801
sg2754
(dp2802
S'global current'
p2803
S'<thread._local object>'
p2804
sS'environment'
p2805
S"{'A': <class 'gluon.html.A'>, 'B': <class 'gluon.html.B'>, 'BEAUTIFY': <class 'gluon.html.BEAUTIFY'>, 'BODY': <class 'gluon.html.BODY'>, 'BR': <class 'gluon.html.BR'>, 'BUTTON': <class 'gluon.html.BUTTON'>, 'CENTER': <class 'gluon.html.CENTER'>, 'CLEANUP': <class 'gluon.validators.CLEANUP'>, 'CODE': <class 'gluon.html.CODE'>, 'CRYPT': <class 'gluon.validators.CRYPT'>, ...}"
p2806
sS'global Cache'
p2807
S"<class 'gluon.cache.Cache'>"
p2808
sS'request'
p2809
S"<Storage {'body': <cStringIO.StringO object at 0..._vars': <Storage {}>, 'post_vars': <Storage {}>}>"
p2810
sS'current.cache'
p2811
g2782
ssg2764
I233
sg2765
(dp2812
I228
S''
sI229
S'    current.request = request'
p2813
sI230
S'    current.response = response'
p2814
sI231
S'    current.session = session'
p2815
sI232
S"    current.T = environment['T'] = translator(request)"
p2816
sI233
S"    current.cache = environment['cache'] = Cache(request)"
p2817
sI234
S''
sI235
S"    __builtins__['__import__'] = __builtin__.__import__"
p2818
sI236
S"    environment['__builtins__'] = __builtins__"
p2819
sI237
S"    environment['HTTP'] = HTTP"
p2820
ssg2774
S"(request=<Storage {'body': <cStringIO.StringO object at 0..._vars': <Storage {}>, 'post_vars': <Storage {}>}>, response=<Storage {'status': 200, 'body': <cStringIO.Stri...ssion_id_name': 'session_id_admin', 'files': []}>, session=<Storage {'check_version': False, '_Session__has...'last_time': 1308687783.409865, '_secure': True}>)"
p2821
sg2776
S'build_environment'
p2822
sa(dp2823
g2752
S'/home/arvin/web2py/gluon/cache.py'
p2824
sg2754
(dp2825
S'self'
p2826
S'<gluon.cache.Cache object>'
p2827
sS'request'
p2828
S"<Storage {'body': <cStringIO.StringO object at 0..._vars': <Storage {}>, 'post_vars': <Storage {}>}>"
p2829
sS'self.disk'
p2830
g2782
sS'global CacheOnDisk'
p2831
S"<class 'gluon.cache.CacheOnDisk'>"
p2832
ssg2764
I376
sg2765
(dp2833
I371
S'            self.ram=self.disk=MemcacheClient(request)'
p2834
sI372
S'        else:'
p2835
sI373
S'            # Otherwise use ram (and try also disk)'
p2836
sI374
S'            self.ram = CacheInRam(request)'
p2837
sI375
S'            try:'
p2838
sI376
S'                self.disk = CacheOnDisk(request)'
p2839
sI377
S'            except IOError:'
p2840
sI378
S"                logger.warning('no cache.disk (IOError)')"
p2841
sI379
S'            except AttributeError:'
p2842
sI380
S'                # normally not expected anymore, as GAE has already'
p2843
ssg2774
S"(self=<gluon.cache.Cache object>, request=<Storage {'body': <cStringIO.StringO object at 0..._vars': <Storage {}>, 'post_vars': <Storage {}>}>)"
p2844
sg2776
g20
sa(dp2845
g2752
S'/home/arvin/web2py/gluon/cache.py'
p2846
sg2754
(dp2847
S'os.unlink'
p2848
S'<built-in function unlink>'
p2849
sS'self.shelve_name'
p2850
S"'/home/arvin/web2py/applications/admin/cache/cache.shelve'"
p2851
sS'self'
p2852
S'<gluon.cache.CacheOnDisk object>'
p2853
sS'global os'
p2854
S"<module 'os' from '/usr/lib/python2.7/os.pyc'>"
p2855
ssg2764
I261
sg2765
(dp2856
I256
S'                pass # no module _bsddb, ignoring exception now so it makes a ticket only if used'
p2857
sI257
S'            except:'
p2858
sI258
S"                logger.error('corrupted file %s, will try delete it!' \\"
p2859
sI259
S'                                 % self.shelve_name)'
p2860
sI260
S'                try:'
p2861
sI261
S'                    os.unlink(self.shelve_name)'
p2862
sI262
S'                except IOError:'
p2863
sI263
S"                    logger.warn('unable to delete file %s' % self.shelve_name)"
p2864
sI264
S'            if locker_locked:'
p2865
sI265
S'                portalocker.unlock(locker)'
p2866
ssg2774
S"(self=<gluon.cache.CacheOnDisk object>, request=<Storage {'body': <cStringIO.StringO object at 0..._vars': <Storage {}>, 'post_vars': <Storage {}>}>, folder='/home/arvin/web2py/applications/admin/cache')"
p2867
sg2776
g20
sasS'pyver'
p2868
S'Python 2.7.1+: '
p2869
sS'session'
p2870
g61
(g62
g63
NtRp2871
(dp2872
g66
(dp2873
sg68
(lp2874
g61
(g70
g63
NtRp2875
(dp2876
g66
(dp2877
g74
I5
ssg75
Nsg68
(lp2878
g61
(g77
g63
NtRp2879
(dp2880
g66
(dp2881
sg75
g2875
sg68
(lp2882
g61
(g82
g63
NtRp2883
(dp2884
g66
(dp2885
g86
g87
ssg75
g2879
sg68
(lp2886
S'authorized'
p2887
asbag61
(g82
g63
NtRp2888
(dp2889
g66
(dp2890
g93
g94
ssg75
g2879
sg68
(lp2891
S':'
asbag61
(g82
g63
NtRp2892
(dp2893
g66
(dp2894
sg75
g2879
sg68
(lp2895
g61
(g62
g63
NtRp2896
(dp2897
g66
(dp2898
g74
I5
ssg75
g2892
sg68
(lp2899
g1843
asbasbasbag61
(g77
g63
NtRp2900
(dp2901
g66
(dp2902
sg75
g2875
sg68
(lp2903
g61
(g82
g63
NtRp2904
(dp2905
g66
(dp2906
g86
g87
ssg75
g2900
sg68
(lp2907
S'check_version'
p2908
asbag61
(g82
g63
NtRp2909
(dp2910
g66
(dp2911
g93
g94
ssg75
g2900
sg68
(lp2912
S':'
asbag61
(g82
g63
NtRp2913
(dp2914
g66
(dp2915
sg75
g2900
sg68
(lp2916
g61
(g62
g63
NtRp2917
(dp2918
g66
(dp2919
g74
I5
ssg75
g2913
sg68
(lp2920
g104
asbasbasbag61
(g77
g63
NtRp2921
(dp2922
g66
(dp2923
sg75
g2875
sg68
(lp2924
g61
(g82
g63
NtRp2925
(dp2926
g66
(dp2927
g86
g87
ssg75
g2921
sg68
(lp2928
S'last_time'
p2929
asbag61
(g82
g63
NtRp2930
(dp2931
g66
(dp2932
g93
g94
ssg75
g2921
sg68
(lp2933
S':'
asbag61
(g82
g63
NtRp2934
(dp2935
g66
(dp2936
sg75
g2921
sg68
(lp2937
g61
(g62
g63
NtRp2938
(dp2939
g66
(dp2940
g74
I5
ssg75
g2934
sg68
(lp2941
S'1308687783.409865'
p2942
asbasbasbasbasbsS'etype'
p2943
S"<type 'exceptions.OSError'>"
p2944
sS'date'
p2945
S'Tue Jun 21 14:26:06 2011'
p2946
sS'response'
p2947
g61
(g62
g63
NtRp2948
(dp2949
g66
(dp2950
sg68
(lp2951
g61
(g70
g63
NtRp2952
(dp2953
g66
(dp2954
g74
I5
ssg75
Nsg68
(lp2955
g61
(g77
g63
NtRp2956
(dp2957
g66
(dp2958
sg75
g2952
sg68
(lp2959
g61
(g82
g63
NtRp2960
(dp2961
g66
(dp2962
g86
g87
ssg75
g2956
sg68
(lp2963
g185
asbag61
(g82
g63
NtRp2964
(dp2965
g66
(dp2966
g93
g94
ssg75
g2956
sg68
(lp2967
S':'
asbag61
(g82
g63
NtRp2968
(dp2969
g66
(dp2970
sg75
g2956
sg68
(lp2971
g61
(g62
g63
NtRp2972
(dp2973
g66
(dp2974
g74
I5
ssg75
g2968
sg68
(lp2975
S'<cStringIO.StringO object at 0xa61fa80>'
p2976
asbasbasbag61
(g77
g63
NtRp2977
(dp2978
g66
(dp2979
sg75
g2952
sg68
(lp2980
g61
(g82
g63
NtRp2981
(dp2982
g66
(dp2983
g86
g87
ssg75
g2977
sg68
(lp2984
g251
asbag61
(g82
g63
NtRp2985
(dp2986
g66
(dp2987
g93
g94
ssg75
g2977
sg68
(lp2988
S':'
asbag61
(g82
g63
NtRp2989
(dp2990
g66
(dp2991
sg75
g2977
sg68
(lp2992
g61
(g62
g63
NtRp2993
(dp2994
g66
(dp2995
g74
I5
ssg75
g2989
sg68
(lp2996
g61
(g70
g63
NtRp2997
(dp2998
g66
(dp2999
g74
I4
ssg75
Nsg68
(lp3000
g61
(g77
g63
NtRp3001
(dp3002
g66
(dp3003
sg75
g2997
sg68
(lp3004
g61
(g82
g63
NtRp3005
(dp3006
g66
(dp3007
g86
g87
ssg75
g3001
sg68
(lp3008
S'session_id_admin'
p3009
asbag61
(g82
g63
NtRp3010
(dp3011
g66
(dp3012
g93
g94
ssg75
g3001
sg68
(lp3013
S':'
asbag61
(g82
g63
NtRp3014
(dp3015
g66
(dp3016
sg75
g3001
sg68
(lp3017
g61
(g62
g63
NtRp3018
(dp3019
g66
(dp3020
g74
I4
ssg75
g3014
sg68
(lp3021
g61
(g70
g63
NtRp3022
(dp3023
g66
(dp3024
g74
I3
ssg75
Nsg68
(lp3025
g61
(g77
g63
NtRp3026
(dp3027
g66
(dp3028
sg75
g3022
sg68
(lp3029
g61
(g82
g63
NtRp3030
(dp3031
g66
(dp3032
g86
g87
ssg75
g3026
sg68
(lp3033
g301
asbag61
(g82
g63
NtRp3034
(dp3035
g66
(dp3036
g93
g94
ssg75
g3026
sg68
(lp3037
S':'
asbag61
(g82
g63
NtRp3038
(dp3039
g66
(dp3040
sg75
g3026
sg68
(lp3041
g61
(g62
g63
NtRp3042
(dp3043
g66
(dp3044
g74
I3
ssg75
g3038
sg68
(lp3045
S''
asbasbasbag61
(g77
g63
NtRp3046
(dp3047
g66
(dp3048
sg75
g3022
sg68
(lp3049
g61
(g82
g63
NtRp3050
(dp3051
g66
(dp3052
g86
g87
ssg75
g3046
sg68
(lp3053
g322
asbag61
(g82
g63
NtRp3054
(dp3055
g66
(dp3056
g93
g94
ssg75
g3046
sg68
(lp3057
S':'
asbag61
(g82
g63
NtRp3058
(dp3059
g66
(dp3060
sg75
g3046
sg68
(lp3061
g61
(g62
g63
NtRp3062
(dp3063
g66
(dp3064
g74
I3
ssg75
g3058
sg68
(lp3065
S''
asbasbasbag61
(g77
g63
NtRp3066
(dp3067
g66
(dp3068
sg75
g3022
sg68
(lp3069
g61
(g82
g63
NtRp3070
(dp3071
g66
(dp3072
g86
g87
ssg75
g3066
sg68
(lp3073
g343
asbag61
(g82
g63
NtRp3074
(dp3075
g66
(dp3076
g93
g94
ssg75
g3066
sg68
(lp3077
S':'
asbag61
(g82
g63
NtRp3078
(dp3079
g66
(dp3080
sg75
g3066
sg68
(lp3081
g61
(g62
g63
NtRp3082
(dp3083
g66
(dp3084
g74
I3
ssg75
g3078
sg68
(lp3085
S''
asbasbasbag61
(g77
g63
NtRp3086
(dp3087
g66
(dp3088
sg75
g3022
sg68
(lp3089
g61
(g82
g63
NtRp3090
(dp3091
g66
(dp3092
g86
g87
ssg75
g3086
sg68
(lp3093
g364
asbag61
(g82
g63
NtRp3094
(dp3095
g66
(dp3096
g93
g94
ssg75
g3086
sg68
(lp3097
S':'
asbag61
(g82
g63
NtRp3098
(dp3099
g66
(dp3100
sg75
g3086
sg68
(lp3101
g61
(g62
g63
NtRp3102
(dp3103
g66
(dp3104
g74
I3
ssg75
g3098
sg68
(lp3105
S''
asbasbasbag61
(g77
g63
NtRp3106
(dp3107
g66
(dp3108
sg75
g3022
sg68
(lp3109
g61
(g82
g63
NtRp3110
(dp3111
g66
(dp3112
g86
g87
ssg75
g3106
sg68
(lp3113
g385
asbag61
(g82
g63
NtRp3114
(dp3115
g66
(dp3116
g93
g94
ssg75
g3106
sg68
(lp3117
S':'
asbag61
(g82
g63
NtRp3118
(dp3119
g66
(dp3120
sg75
g3106
sg68
(lp3121
g61
(g62
g63
NtRp3122
(dp3123
g66
(dp3124
g74
I3
ssg75
g3118
sg68
(lp3125
S''
asbasbasbag61
(g77
g63
NtRp3126
(dp3127
g66
(dp3128
sg75
g3022
sg68
(lp3129
g61
(g82
g63
NtRp3130
(dp3131
g66
(dp3132
g86
g87
ssg75
g3126
sg68
(lp3133
g406
asbag61
(g82
g63
NtRp3134
(dp3135
g66
(dp3136
g93
g94
ssg75
g3126
sg68
(lp3137
S':'
asbag61
(g82
g63
NtRp3138
(dp3139
g66
(dp3140
sg75
g3126
sg68
(lp3141
g61
(g62
g63
NtRp3142
(dp3143
g66
(dp3144
g74
I3
ssg75
g3138
sg68
(lp3145
S'/'
asbasbasbag61
(g77
g63
NtRp3146
(dp3147
g66
(dp3148
sg75
g3022
sg68
(lp3149
g61
(g82
g63
NtRp3150
(dp3151
g66
(dp3152
g86
g87
ssg75
g3146
sg68
(lp3153
g427
asbag61
(g82
g63
NtRp3154
(dp3155
g66
(dp3156
g93
g94
ssg75
g3146
sg68
(lp3157
S':'
asbag61
(g82
g63
NtRp3158
(dp3159
g66
(dp3160
sg75
g3146
sg68
(lp3161
g61
(g62
g63
NtRp3162
(dp3163
g66
(dp3164
g74
I3
ssg75
g3158
sg68
(lp3165
S''
asbasbasbag61
(g77
g63
NtRp3166
(dp3167
g66
(dp3168
sg75
g3022
sg68
(lp3169
g61
(g82
g63
NtRp3170
(dp3171
g66
(dp3172
g86
g87
ssg75
g3166
sg68
(lp3173
g448
asbag61
(g82
g63
NtRp3174
(dp3175
g66
(dp3176
g93
g94
ssg75
g3166
sg68
(lp3177
S':'
asbag61
(g82
g63
NtRp3178
(dp3179
g66
(dp3180
sg75
g3166
sg68
(lp3181
g61
(g62
g63
NtRp3182
(dp3183
g66
(dp3184
g74
I3
ssg75
g3178
sg68
(lp3185
S''
asbasbasbasbasbasbasbasbasbasbasbag61
(g77
g63
NtRp3186
(dp3187
g66
(dp3188
sg75
g2952
sg68
(lp3189
g61
(g82
g63
NtRp3190
(dp3191
g66
(dp3192
g86
g87
ssg75
g3186
sg68
(lp3193
S'files'
p3194
asbag61
(g82
g63
NtRp3195
(dp3196
g66
(dp3197
g93
g94
ssg75
g3186
sg68
(lp3198
S':'
asbag61
(g82
g63
NtRp3199
(dp3200
g66
(dp3201
sg75
g3186
sg68
(lp3202
g61
(g62
g63
NtRp3203
(dp3204
g66
(dp3205
g74
I5
ssg75
g3199
sg68
(lp3206
g61
(g70
g63
NtRp3207
(dp3208
g66
(dp3209
g74
I4
ssg75
Nsg68
(lp3210
sbasbasbasbag61
(g77
g63
NtRp3211
(dp3212
g66
(dp3213
sg75
g2952
sg68
(lp3214
g61
(g82
g63
NtRp3215
(dp3216
g66
(dp3217
g86
g87
ssg75
g3211
sg68
(lp3218
S'flash'
p3219
asbag61
(g82
g63
NtRp3220
(dp3221
g66
(dp3222
g93
g94
ssg75
g3211
sg68
(lp3223
S':'
asbag61
(g82
g63
NtRp3224
(dp3225
g66
(dp3226
sg75
g3211
sg68
(lp3227
g61
(g62
g63
NtRp3228
(dp3229
g66
(dp3230
g74
I5
ssg75
g3224
sg68
(lp3231
S''
asbasbasbag61
(g77
g63
NtRp3232
(dp3233
g66
(dp3234
sg75
g2952
sg68
(lp3235
g61
(g82
g63
NtRp3236
(dp3237
g66
(dp3238
g86
g87
ssg75
g3232
sg68
(lp3239
S'headers'
p3240
asbag61
(g82
g63
NtRp3241
(dp3242
g66
(dp3243
g93
g94
ssg75
g3232
sg68
(lp3244
S':'
asbag61
(g82
g63
NtRp3245
(dp3246
g66
(dp3247
sg75
g3232
sg68
(lp3248
g61
(g62
g63
NtRp3249
(dp3250
g66
(dp3251
g74
I5
ssg75
g3245
sg68
(lp3252
g61
(g70
g63
NtRp3253
(dp3254
g66
(dp3255
g74
I4
ssg75
Nsg68
(lp3256
g61
(g77
g63
NtRp3257
(dp3258
g66
(dp3259
sg75
g3253
sg68
(lp3260
g61
(g82
g63
NtRp3261
(dp3262
g66
(dp3263
g86
g87
ssg75
g3257
sg68
(lp3264
S'Cache-Control'
p3265
asbag61
(g82
g63
NtRp3266
(dp3267
g66
(dp3268
g93
g94
ssg75
g3257
sg68
(lp3269
S':'
asbag61
(g82
g63
NtRp3270
(dp3271
g66
(dp3272
sg75
g3257
sg68
(lp3273
g61
(g62
g63
NtRp3274
(dp3275
g66
(dp3276
g74
I4
ssg75
g3270
sg68
(lp3277
S'no-store, no-cache, must-revalidate, post-check=0, pre-check=0'
p3278
asbasbasbag61
(g77
g63
NtRp3279
(dp3280
g66
(dp3281
sg75
g3253
sg68
(lp3282
g61
(g82
g63
NtRp3283
(dp3284
g66
(dp3285
g86
g87
ssg75
g3279
sg68
(lp3286
S'Content-Type'
p3287
asbag61
(g82
g63
NtRp3288
(dp3289
g66
(dp3290
g93
g94
ssg75
g3279
sg68
(lp3291
S':'
asbag61
(g82
g63
NtRp3292
(dp3293
g66
(dp3294
sg75
g3279
sg68
(lp3295
g61
(g62
g63
NtRp3296
(dp3297
g66
(dp3298
g74
I4
ssg75
g3292
sg68
(lp3299
S'text/html; charset=utf-8'
p3300
asbasbasbag61
(g77
g63
NtRp3301
(dp3302
g66
(dp3303
sg75
g3253
sg68
(lp3304
g61
(g82
g63
NtRp3305
(dp3306
g66
(dp3307
g86
g87
ssg75
g3301
sg68
(lp3308
S'Expires'
p3309
asbag61
(g82
g63
NtRp3310
(dp3311
g66
(dp3312
g93
g94
ssg75
g3301
sg68
(lp3313
S':'
asbag61
(g82
g63
NtRp3314
(dp3315
g66
(dp3316
sg75
g3301
sg68
(lp3317
g61
(g62
g63
NtRp3318
(dp3319
g66
(dp3320
g74
I4
ssg75
g3314
sg68
(lp3321
S'Tue, 21 Jun 2011 20:26:06 GMT'
p3322
asbasbasbag61
(g77
g63
NtRp3323
(dp3324
g66
(dp3325
sg75
g3253
sg68
(lp3326
g61
(g82
g63
NtRp3327
(dp3328
g66
(dp3329
g86
g87
ssg75
g3323
sg68
(lp3330
S'Pragma'
p3331
asbag61
(g82
g63
NtRp3332
(dp3333
g66
(dp3334
g93
g94
ssg75
g3323
sg68
(lp3335
S':'
asbag61
(g82
g63
NtRp3336
(dp3337
g66
(dp3338
sg75
g3323
sg68
(lp3339
g61
(g62
g63
NtRp3340
(dp3341
g66
(dp3342
g74
I4
ssg75
g3336
sg68
(lp3343
S'no-cache'
p3344
asbasbasbag61
(g77
g63
NtRp3345
(dp3346
g66
(dp3347
sg75
g3253
sg68
(lp3348
g61
(g82
g63
NtRp3349
(dp3350
g66
(dp3351
g86
g87
ssg75
g3345
sg68
(lp3352
S'X-Powered-By'
p3353
asbag61
(g82
g63
NtRp3354
(dp3355
g66
(dp3356
g93
g94
ssg75
g3345
sg68
(lp3357
S':'
asbag61
(g82
g63
NtRp3358
(dp3359
g66
(dp3360
sg75
g3345
sg68
(lp3361
g61
(g62
g63
NtRp3362
(dp3363
g66
(dp3364
g74
I4
ssg75
g3358
sg68
(lp3365
S'web2py'
p3366
asbasbasbasbasbasbasbag61
(g77
g63
NtRp3367
(dp3368
g66
(dp3369
sg75
g2952
sg68
(lp3370
g61
(g82
g63
NtRp3371
(dp3372
g66
(dp3373
g86
g87
ssg75
g3367
sg68
(lp3374
S'menu'
p3375
asbag61
(g82
g63
NtRp3376
(dp3377
g66
(dp3378
g93
g94
ssg75
g3367
sg68
(lp3379
S':'
asbag61
(g82
g63
NtRp3380
(dp3381
g66
(dp3382
sg75
g3367
sg68
(lp3383
g61
(g62
g63
NtRp3384
(dp3385
g66
(dp3386
g74
I5
ssg75
g3380
sg68
(lp3387
g61
(g70
g63
NtRp3388
(dp3389
g66
(dp3390
g74
I4
ssg75
Nsg68
(lp3391
sbasbasbasbag61
(g77
g63
NtRp3392
(dp3393
g66
(dp3394
sg75
g2952
sg68
(lp3395
g61
(g82
g63
NtRp3396
(dp3397
g66
(dp3398
g86
g87
ssg75
g3392
sg68
(lp3399
S'meta'
p3400
asbag61
(g82
g63
NtRp3401
(dp3402
g66
(dp3403
g93
g94
ssg75
g3392
sg68
(lp3404
S':'
asbag61
(g82
g63
NtRp3405
(dp3406
g66
(dp3407
sg75
g3392
sg68
(lp3408
g61
(g62
g63
NtRp3409
(dp3410
g66
(dp3411
g74
I5
ssg75
g3405
sg68
(lp3412
g61
(g70
g63
NtRp3413
(dp3414
g66
(dp3415
g74
I4
ssg75
Nsg68
(lp3416
sbasbasbasbag61
(g77
g63
NtRp3417
(dp3418
g66
(dp3419
sg75
g2952
sg68
(lp3420
g61
(g82
g63
NtRp3421
(dp3422
g66
(dp3423
g86
g87
ssg75
g3417
sg68
(lp3424
S'postprocessing'
p3425
asbag61
(g82
g63
NtRp3426
(dp3427
g66
(dp3428
g93
g94
ssg75
g3417
sg68
(lp3429
S':'
asbag61
(g82
g63
NtRp3430
(dp3431
g66
(dp3432
sg75
g3417
sg68
(lp3433
g61
(g62
g63
NtRp3434
(dp3435
g66
(dp3436
g74
I5
ssg75
g3430
sg68
(lp3437
g61
(g70
g63
NtRp3438
(dp3439
g66
(dp3440
g74
I4
ssg75
Nsg68
(lp3441
sbasbasbasbag61
(g77
g63
NtRp3442
(dp3443
g66
(dp3444
sg75
g2952
sg68
(lp3445
g61
(g82
g63
NtRp3446
(dp3447
g66
(dp3448
g86
g87
ssg75
g3442
sg68
(lp3449
S'session_file'
p3450
asbag61
(g82
g63
NtRp3451
(dp3452
g66
(dp3453
g93
g94
ssg75
g3442
sg68
(lp3454
S':'
asbag61
(g82
g63
NtRp3455
(dp3456
g66
(dp3457
sg75
g3442
sg68
(lp3458
g61
(g62
g63
NtRp3459
(dp3460
g66
(dp3461
g74
I5
ssg75
g3455
sg68
(lp3462
S"<open file '/home/arvin/web2py/applications/admin/sessions/186.32.48.60-cf518a5d-2337-45cf-9e57-dadf486628d0', mode 'rb+' at 0xa648e90>"
p3463
asbasbasbag61
(g77
g63
NtRp3464
(dp3465
g66
(dp3466
sg75
g2952
sg68
(lp3467
g61
(g82
g63
NtRp3468
(dp3469
g66
(dp3470
g86
g87
ssg75
g3464
sg68
(lp3471
S'session_filename'
p3472
asbag61
(g82
g63
NtRp3473
(dp3474
g66
(dp3475
g93
g94
ssg75
g3464
sg68
(lp3476
S':'
asbag61
(g82
g63
NtRp3477
(dp3478
g66
(dp3479
sg75
g3464
sg68
(lp3480
g61
(g62
g63
NtRp3481
(dp3482
g66
(dp3483
g74
I5
ssg75
g3477
sg68
(lp3484
S'/home/arvin/web2py/applications/admin/sessions/186.32.48.60-cf518a5d-2337-45cf-9e57-dadf486628d0'
p3485
asbasbasbag61
(g77
g63
NtRp3486
(dp3487
g66
(dp3488
sg75
g2952
sg68
(lp3489
g61
(g82
g63
NtRp3490
(dp3491
g66
(dp3492
g86
g87
ssg75
g3486
sg68
(lp3493
S'session_id'
p3494
asbag61
(g82
g63
NtRp3495
(dp3496
g66
(dp3497
g93
g94
ssg75
g3486
sg68
(lp3498
S':'
asbag61
(g82
g63
NtRp3499
(dp3500
g66
(dp3501
sg75
g3486
sg68
(lp3502
g61
(g62
g63
NtRp3503
(dp3504
g66
(dp3505
g74
I5
ssg75
g3499
sg68
(lp3506
S'186.32.48.60-cf518a5d-2337-45cf-9e57-dadf486628d0'
p3507
asbasbasbag61
(g77
g63
NtRp3508
(dp3509
g66
(dp3510
sg75
g2952
sg68
(lp3511
g61
(g82
g63
NtRp3512
(dp3513
g66
(dp3514
g86
g87
ssg75
g3508
sg68
(lp3515
S'session_id_name'
p3516
asbag61
(g82
g63
NtRp3517
(dp3518
g66
(dp3519
g93
g94
ssg75
g3508
sg68
(lp3520
S':'
asbag61
(g82
g63
NtRp3521
(dp3522
g66
(dp3523
sg75
g3508
sg68
(lp3524
g61
(g62
g63
NtRp3525
(dp3526
g66
(dp3527
g74
I5
ssg75
g3521
sg68
(lp3528
g3009
asbasbasbag61
(g77
g63
NtRp3529
(dp3530
g66
(dp3531
sg75
g2952
sg68
(lp3532
g61
(g82
g63
NtRp3533
(dp3534
g66
(dp3535
g86
g87
ssg75
g3529
sg68
(lp3536
S'session_locked'
p3537
asbag61
(g82
g63
NtRp3538
(dp3539
g66
(dp3540
g93
g94
ssg75
g3529
sg68
(lp3541
S':'
asbag61
(g82
g63
NtRp3542
(dp3543
g66
(dp3544
sg75
g3529
sg68
(lp3545
g61
(g62
g63
NtRp3546
(dp3547
g66
(dp3548
g74
I5
ssg75
g3542
sg68
(lp3549
g1843
asbasbasbag61
(g77
g63
NtRp3550
(dp3551
g66
(dp3552
sg75
g2952
sg68
(lp3553
g61
(g82
g63
NtRp3554
(dp3555
g66
(dp3556
g86
g87
ssg75
g3550
sg68
(lp3557
S'session_new'
p3558
asbag61
(g82
g63
NtRp3559
(dp3560
g66
(dp3561
g93
g94
ssg75
g3550
sg68
(lp3562
S':'
asbag61
(g82
g63
NtRp3563
(dp3564
g66
(dp3565
sg75
g3550
sg68
(lp3566
g61
(g62
g63
NtRp3567
(dp3568
g66
(dp3569
g74
I5
ssg75
g3563
sg68
(lp3570
g104
asbasbasbag61
(g77
g63
NtRp3571
(dp3572
g66
(dp3573
sg75
g2952
sg68
(lp3574
g61
(g82
g63
NtRp3575
(dp3576
g66
(dp3577
g86
g87
ssg75
g3571
sg68
(lp3578
S'status'
p3579
asbag61
(g82
g63
NtRp3580
(dp3581
g66
(dp3582
g93
g94
ssg75
g3571
sg68
(lp3583
S':'
asbag61
(g82
g63
NtRp3584
(dp3585
g66
(dp3586
sg75
g3571
sg68
(lp3587
g61
(g62
g63
NtRp3588
(dp3589
g66
(dp3590
g74
I5
ssg75
g3584
sg68
(lp3591
S'200'
p3592
asbasbasbag61
(g77
g63
NtRp3593
(dp3594
g66
(dp3595
sg75
g2952
sg68
(lp3596
g61
(g82
g63
NtRp3597
(dp3598
g66
(dp3599
g86
g87
ssg75
g3593
sg68
(lp3600
g1985
asbag61
(g82
g63
NtRp3601
(dp3602
g66
(dp3603
g93
g94
ssg75
g3593
sg68
(lp3604
S':'
asbag61
(g82
g63
NtRp3605
(dp3606
g66
(dp3607
sg75
g3593
sg68
(lp3608
g61
(g62
g63
NtRp3609
(dp3610
g66
(dp3611
g74
I5
ssg75
g3605
sg68
(lp3612
g1998
asbasbasbasbasbsS'locals'
p3613
(dp3614
S'locker_locked'
p3615
g104
sS'speedup_key'
p3616
S"('/home/arvin/web2py/applications/admin/cache', 'web2py_cache_statistics')"
p3617
sS'self'
p3618
S'<gluon.cache.CacheOnDisk object>'
p3619
sg60
S"<Storage {'body': <cStringIO.StringO object at 0..._vars': <Storage {}>, 'post_vars': <Storage {}>}>"
p3620
sS'locker'
p3621
S'None'
p3622
sg1761
S"'/home/arvin/web2py/applications/admin/cache'"
p3623
sssS'traceback'
p3624
S'Traceback (most recent call last):\n  File "/home/arvin/web2py/gluon/main.py", line 485, in wsgibase\n    serve_controller(request, response, session)\n  File "/home/arvin/web2py/gluon/main.py", line 188, in serve_controller\n    environment = build_environment(request, response, session)\n  File "/home/arvin/web2py/gluon/compileapp.py", line 233, in build_environment\n    current.cache = environment[\'cache\'] = Cache(request)\n  File "/home/arvin/web2py/gluon/cache.py", line 376, in __init__\n    self.disk = CacheOnDisk(request)\n  File "/home/arvin/web2py/gluon/cache.py", line 261, in __init__\n    os.unlink(self.shelve_name)\nOSError: [Errno 13] Permission denied: \'/home/arvin/web2py/applications/admin/cache/cache.shelve\'\n'
p3625
s.